Archive member included because of file (symbol)

/Users/cho45/project/raspberrypi-mruby-bare-metal/mruby/build/arm-eabi-raspberry-pi/lib/libmruby.a(load.o)
                              main.o (mrb_load_irep)
/Users/cho45/project/raspberrypi-mruby-bare-metal/mruby/build/arm-eabi-raspberry-pi/lib/libmruby.a(proc.o)
                              /Users/cho45/project/raspberrypi-mruby-bare-metal/mruby/build/arm-eabi-raspberry-pi/lib/libmruby.a(load.o) (mrb_proc_new)
/Users/cho45/project/raspberrypi-mruby-bare-metal/mruby/build/arm-eabi-raspberry-pi/lib/libmruby.a(state.o)
                              main.o (mrb_open)
/Users/cho45/project/raspberrypi-mruby-bare-metal/mruby/build/arm-eabi-raspberry-pi/lib/libmruby.a(string.o)
                              /Users/cho45/project/raspberrypi-mruby-bare-metal/mruby/build/arm-eabi-raspberry-pi/lib/libmruby.a(load.o) (mrb_str_new)
/Users/cho45/project/raspberrypi-mruby-bare-metal/mruby/build/arm-eabi-raspberry-pi/lib/libmruby.a(symbol.o)
                              /Users/cho45/project/raspberrypi-mruby-bare-metal/mruby/build/arm-eabi-raspberry-pi/lib/libmruby.a(load.o) (mrb_intern)
/Users/cho45/project/raspberrypi-mruby-bare-metal/mruby/build/arm-eabi-raspberry-pi/lib/libmruby.a(variable.o)
                              /Users/cho45/project/raspberrypi-mruby-bare-metal/mruby/build/arm-eabi-raspberry-pi/lib/libmruby.a(state.o) (mrb_gc_free_gv)
/Users/cho45/project/raspberrypi-mruby-bare-metal/mruby/build/arm-eabi-raspberry-pi/lib/libmruby.a(vm.o)
                              /Users/cho45/project/raspberrypi-mruby-bare-metal/mruby/build/arm-eabi-raspberry-pi/lib/libmruby.a(string.o) (mrb_funcall)
/Users/cho45/project/raspberrypi-mruby-bare-metal/mruby/build/arm-eabi-raspberry-pi/lib/libmruby.a(array.o)
                              /Users/cho45/project/raspberrypi-mruby-bare-metal/mruby/build/arm-eabi-raspberry-pi/lib/libmruby.a(string.o) (mrb_ary_new_capa)
/Users/cho45/project/raspberrypi-mruby-bare-metal/mruby/build/arm-eabi-raspberry-pi/lib/libmruby.a(class.o)
                              /Users/cho45/project/raspberrypi-mruby-bare-metal/mruby/build/arm-eabi-raspberry-pi/lib/libmruby.a(variable.o) (mrb_class_outer_module)
/Users/cho45/project/raspberrypi-mruby-bare-metal/mruby/build/arm-eabi-raspberry-pi/lib/libmruby.a(crc.o)
                              /Users/cho45/project/raspberrypi-mruby-bare-metal/mruby/build/arm-eabi-raspberry-pi/lib/libmruby.a(load.o) (calc_crc_16_ccitt)
/Users/cho45/project/raspberrypi-mruby-bare-metal/mruby/build/arm-eabi-raspberry-pi/lib/libmruby.a(debug.o)
                              /Users/cho45/project/raspberrypi-mruby-bare-metal/mruby/build/arm-eabi-raspberry-pi/lib/libmruby.a(state.o) (mrb_debug_info_free)
/Users/cho45/project/raspberrypi-mruby-bare-metal/mruby/build/arm-eabi-raspberry-pi/lib/libmruby.a(error.o)
                              /Users/cho45/project/raspberrypi-mruby-bare-metal/mruby/build/arm-eabi-raspberry-pi/lib/libmruby.a(load.o) (mrb_exc_new)
/Users/cho45/project/raspberrypi-mruby-bare-metal/mruby/build/arm-eabi-raspberry-pi/lib/libmruby.a(gc.o)
                              /Users/cho45/project/raspberrypi-mruby-bare-metal/mruby/build/arm-eabi-raspberry-pi/lib/libmruby.a(string.o) (mrb_realloc)
/Users/cho45/project/raspberrypi-mruby-bare-metal/mruby/build/arm-eabi-raspberry-pi/lib/libmruby.a(hash.o)
                              /Users/cho45/project/raspberrypi-mruby-bare-metal/mruby/build/arm-eabi-raspberry-pi/lib/libmruby.a(gc.o) (mrb_gc_mark_hash)
/Users/cho45/project/raspberrypi-mruby-bare-metal/mruby/build/arm-eabi-raspberry-pi/lib/libmruby.a(init.o)
                              /Users/cho45/project/raspberrypi-mruby-bare-metal/mruby/build/arm-eabi-raspberry-pi/lib/libmruby.a(state.o) (mrb_init_core)
/Users/cho45/project/raspberrypi-mruby-bare-metal/mruby/build/arm-eabi-raspberry-pi/lib/libmruby.a(kernel.o)
                              /Users/cho45/project/raspberrypi-mruby-bare-metal/mruby/build/arm-eabi-raspberry-pi/lib/libmruby.a(error.o) (mrb_obj_clone)
/Users/cho45/project/raspberrypi-mruby-bare-metal/mruby/build/arm-eabi-raspberry-pi/lib/libmruby.a(numeric.o)
                              /Users/cho45/project/raspberrypi-mruby-bare-metal/mruby/build/arm-eabi-raspberry-pi/lib/libmruby.a(init.o) (mrb_init_numeric)
/Users/cho45/project/raspberrypi-mruby-bare-metal/mruby/build/arm-eabi-raspberry-pi/lib/libmruby.a(object.o)
                              /Users/cho45/project/raspberrypi-mruby-bare-metal/mruby/build/arm-eabi-raspberry-pi/lib/libmruby.a(vm.o) (mrb_obj_eq)
/Users/cho45/project/raspberrypi-mruby-bare-metal/mruby/build/arm-eabi-raspberry-pi/lib/libmruby.a(print.o)
                              /Users/cho45/project/raspberrypi-mruby-bare-metal/mruby/build/arm-eabi-raspberry-pi/lib/libmruby.a(error.o) (mrb_p)
/Users/cho45/project/raspberrypi-mruby-bare-metal/mruby/build/arm-eabi-raspberry-pi/lib/libmruby.a(range.o)
                              /Users/cho45/project/raspberrypi-mruby-bare-metal/mruby/build/arm-eabi-raspberry-pi/lib/libmruby.a(vm.o) (mrb_range_new)
/Users/cho45/project/raspberrypi-mruby-bare-metal/mruby/build/arm-eabi-raspberry-pi/lib/libmruby.a(version.o)
                              /Users/cho45/project/raspberrypi-mruby-bare-metal/mruby/build/arm-eabi-raspberry-pi/lib/libmruby.a(init.o) (mrb_init_version)
/Users/cho45/project/raspberrypi-mruby-bare-metal/mruby/build/arm-eabi-raspberry-pi/lib/libmruby.a(mrblib.o)
                              /Users/cho45/project/raspberrypi-mruby-bare-metal/mruby/build/arm-eabi-raspberry-pi/lib/libmruby.a(init.o) (mrb_init_mrblib)
/Users/cho45/project/raspberrypi-mruby-bare-metal/mruby/build/arm-eabi-raspberry-pi/lib/libmruby.a(backtrace.o)
                              /Users/cho45/project/raspberrypi-mruby-bare-metal/mruby/build/arm-eabi-raspberry-pi/lib/libmruby.a(print.o) (mrb_print_backtrace)
/Users/cho45/project/raspberrypi-mruby-bare-metal/mruby/build/arm-eabi-raspberry-pi/lib/libmruby.a(compar.o)
                              /Users/cho45/project/raspberrypi-mruby-bare-metal/mruby/build/arm-eabi-raspberry-pi/lib/libmruby.a(init.o) (mrb_init_comparable)
/Users/cho45/project/raspberrypi-mruby-bare-metal/mruby/build/arm-eabi-raspberry-pi/lib/libmruby.a(enum.o)
                              /Users/cho45/project/raspberrypi-mruby-bare-metal/mruby/build/arm-eabi-raspberry-pi/lib/libmruby.a(init.o) (mrb_init_enumerable)
/Users/cho45/project/raspberrypi-mruby-bare-metal/mruby/build/arm-eabi-raspberry-pi/lib/libmruby.a(etc.o)
                              /Users/cho45/project/raspberrypi-mruby-bare-metal/mruby/build/arm-eabi-raspberry-pi/lib/libmruby.a(kernel.o) (mrb_obj_id)
/Users/cho45/arm-cs-tools/arm-none-eabi/lib//libc.a(lib_a-abort.o)
                              /Users/cho45/project/raspberrypi-mruby-bare-metal/mruby/build/arm-eabi-raspberry-pi/lib/libmruby.a(error.o) (abort)
/Users/cho45/arm-cs-tools/arm-none-eabi/lib//libc.a(lib_a-abs.o)
                              /Users/cho45/project/raspberrypi-mruby-bare-metal/mruby/build/arm-eabi-raspberry-pi/lib/libmruby.a(numeric.o) (abs)
/Users/cho45/arm-cs-tools/arm-none-eabi/lib//libc.a(lib_a-ctype_.o)
                              /Users/cho45/project/raspberrypi-mruby-bare-metal/mruby/build/arm-eabi-raspberry-pi/lib/libmruby.a(string.o) (__ctype_ptr__)
/Users/cho45/arm-cs-tools/arm-none-eabi/lib//libc.a(lib_a-errno.o)
                              syscalls.o (__errno)
/Users/cho45/arm-cs-tools/arm-none-eabi/lib//libc.a(lib_a-exit.o)
                              /Users/cho45/project/raspberrypi-mruby-bare-metal/mruby/build/arm-eabi-raspberry-pi/lib/libmruby.a(error.o) (exit)
/Users/cho45/arm-cs-tools/arm-none-eabi/lib//libc.a(lib_a-fputs.o)
                              /Users/cho45/project/raspberrypi-mruby-bare-metal/mruby/build/arm-eabi-raspberry-pi/lib/libmruby.a(error.o) (fputs)
/Users/cho45/arm-cs-tools/arm-none-eabi/lib//libc.a(lib_a-fread.o)
                              /Users/cho45/project/raspberrypi-mruby-bare-metal/mruby/build/arm-eabi-raspberry-pi/lib/libmruby.a(load.o) (fread)
/Users/cho45/arm-cs-tools/arm-none-eabi/lib//libc.a(lib_a-fseek.o)
                              /Users/cho45/project/raspberrypi-mruby-bare-metal/mruby/build/arm-eabi-raspberry-pi/lib/libmruby.a(load.o) (fseek)
/Users/cho45/arm-cs-tools/arm-none-eabi/lib//libc.a(lib_a-fstatr.o)
                              /Users/cho45/arm-cs-tools/arm-none-eabi/lib//libc.a(lib_a-fseek.o) (_fstat_r)
/Users/cho45/arm-cs-tools/arm-none-eabi/lib//libc.a(lib_a-ftell.o)
                              /Users/cho45/project/raspberrypi-mruby-bare-metal/mruby/build/arm-eabi-raspberry-pi/lib/libmruby.a(load.o) (ftell)
/Users/cho45/arm-cs-tools/arm-none-eabi/lib//libc.a(lib_a-fvwrite.o)
                              /Users/cho45/arm-cs-tools/arm-none-eabi/lib//libc.a(lib_a-fputs.o) (__sfvwrite_r)
/Users/cho45/arm-cs-tools/arm-none-eabi/lib//libc.a(lib_a-fwrite.o)
                              /Users/cho45/project/raspberrypi-mruby-bare-metal/mruby/build/arm-eabi-raspberry-pi/lib/libmruby.a(error.o) (fwrite)
/Users/cho45/arm-cs-tools/arm-none-eabi/lib//libc.a(lib_a-impure.o)
                              /Users/cho45/arm-cs-tools/arm-none-eabi/lib//libc.a(lib_a-exit.o) (_global_impure_ptr)
/Users/cho45/arm-cs-tools/arm-none-eabi/lib//libc.a(lib_a-makebuf.o)
                              /Users/cho45/arm-cs-tools/arm-none-eabi/lib//libc.a(lib_a-fseek.o) (__smakebuf_r)
/Users/cho45/arm-cs-tools/arm-none-eabi/lib//libc.a(lib_a-malloc.o)
                              /Users/cho45/project/raspberrypi-mruby-bare-metal/mruby/build/arm-eabi-raspberry-pi/lib/libmruby.a(state.o) (free)
/Users/cho45/arm-cs-tools/arm-none-eabi/lib//libc.a(lib_a-mallocr.o)
                              /Users/cho45/arm-cs-tools/arm-none-eabi/lib//libc.a(lib_a-fvwrite.o) (_malloc_r)
/Users/cho45/arm-cs-tools/arm-none-eabi/lib//libc.a(lib_a-memchr.o)
                              /Users/cho45/project/raspberrypi-mruby-bare-metal/mruby/build/arm-eabi-raspberry-pi/lib/libmruby.a(string.o) (memchr)
/Users/cho45/arm-cs-tools/arm-none-eabi/lib//libc.a(lib_a-memcmp.o)
                              /Users/cho45/project/raspberrypi-mruby-bare-metal/mruby/build/arm-eabi-raspberry-pi/lib/libmruby.a(load.o) (memcmp)
/Users/cho45/arm-cs-tools/arm-none-eabi/lib//libc.a(lib_a-memcpy.o)
                              /Users/cho45/project/raspberrypi-mruby-bare-metal/mruby/build/arm-eabi-raspberry-pi/lib/libmruby.a(load.o) (memcpy)
/Users/cho45/arm-cs-tools/arm-none-eabi/lib//libc.a(lib_a-memmove.o)
                              /Users/cho45/arm-cs-tools/arm-none-eabi/lib//libc.a(lib_a-fvwrite.o) (memmove)
/Users/cho45/arm-cs-tools/arm-none-eabi/lib//libc.a(lib_a-memset.o)
                              /Users/cho45/project/raspberrypi-mruby-bare-metal/mruby/build/arm-eabi-raspberry-pi/lib/libmruby.a(state.o) (memset)
/Users/cho45/arm-cs-tools/arm-none-eabi/lib//libc.a(lib_a-mlock.o)
                              /Users/cho45/arm-cs-tools/arm-none-eabi/lib//libc.a(lib_a-mallocr.o) (__malloc_lock)
/Users/cho45/arm-cs-tools/arm-none-eabi/lib//libc.a(lib_a-printf.o)
                              /Users/cho45/project/raspberrypi-mruby-bare-metal/mruby/build/arm-eabi-raspberry-pi/lib/libmruby.a(vm.o) (printf)
/Users/cho45/arm-cs-tools/arm-none-eabi/lib//libc.a(lib_a-realloc.o)
                              /Users/cho45/project/raspberrypi-mruby-bare-metal/mruby/build/arm-eabi-raspberry-pi/lib/libmruby.a(state.o) (realloc)
/Users/cho45/arm-cs-tools/arm-none-eabi/lib//libc.a(lib_a-reallocr.o)
                              /Users/cho45/arm-cs-tools/arm-none-eabi/lib//libc.a(lib_a-fvwrite.o) (_realloc_r)
/Users/cho45/arm-cs-tools/arm-none-eabi/lib//libc.a(lib_a-reent.o)
                              /Users/cho45/arm-cs-tools/arm-none-eabi/lib//libc.a(lib_a-fstatr.o) (errno)
/Users/cho45/arm-cs-tools/arm-none-eabi/lib//libc.a(lib_a-refill.o)
                              /Users/cho45/arm-cs-tools/arm-none-eabi/lib//libc.a(lib_a-fread.o) (__srefill_r)
/Users/cho45/arm-cs-tools/arm-none-eabi/lib//libc.a(lib_a-s_fpclassify.o)
                              /Users/cho45/project/raspberrypi-mruby-bare-metal/mruby/build/arm-eabi-raspberry-pi/lib/libmruby.a(numeric.o) (__fpclassifyd)
/Users/cho45/arm-cs-tools/arm-none-eabi/lib//libc.a(lib_a-sbrkr.o)
                              /Users/cho45/arm-cs-tools/arm-none-eabi/lib//libc.a(lib_a-mallocr.o) (_sbrk_r)
/Users/cho45/arm-cs-tools/arm-none-eabi/lib//libc.a(lib_a-setjmp.o)
                              /Users/cho45/project/raspberrypi-mruby-bare-metal/mruby/build/arm-eabi-raspberry-pi/lib/libmruby.a(vm.o) (setjmp)
/Users/cho45/arm-cs-tools/arm-none-eabi/lib//libc.a(lib_a-signal.o)
                              /Users/cho45/arm-cs-tools/arm-none-eabi/lib//libc.a(lib_a-abort.o) (raise)
/Users/cho45/arm-cs-tools/arm-none-eabi/lib//libc.a(lib_a-signalr.o)
                              /Users/cho45/arm-cs-tools/arm-none-eabi/lib//libc.a(lib_a-signal.o) (_kill_r)
/Users/cho45/arm-cs-tools/arm-none-eabi/lib//libc.a(lib_a-stdio.o)
                              /Users/cho45/arm-cs-tools/arm-none-eabi/lib//libc.a(lib_a-fseek.o) (__sseek)
/Users/cho45/arm-cs-tools/arm-none-eabi/lib//libc.a(lib_a-strcmp.o)
                              /Users/cho45/project/raspberrypi-mruby-bare-metal/mruby/build/arm-eabi-raspberry-pi/lib/libmruby.a(debug.o) (strcmp)
/Users/cho45/arm-cs-tools/arm-none-eabi/lib//libc.a(lib_a-strlen.o)
                              /Users/cho45/project/raspberrypi-mruby-bare-metal/mruby/build/arm-eabi-raspberry-pi/lib/libmruby.a(string.o) (strlen)
/Users/cho45/arm-cs-tools/arm-none-eabi/lib//libc.a(lib_a-strtod.o)
                              /Users/cho45/project/raspberrypi-mruby-bare-metal/mruby/build/arm-eabi-raspberry-pi/lib/libmruby.a(string.o) (strtod)
/Users/cho45/arm-cs-tools/arm-none-eabi/lib//libc.a(lib_a-strtoul.o)
                              /Users/cho45/project/raspberrypi-mruby-bare-metal/mruby/build/arm-eabi-raspberry-pi/lib/libmruby.a(string.o) (strtoul)
/Users/cho45/arm-cs-tools/arm-none-eabi/lib//libc.a(lib_a-vfprintf.o)
                              /Users/cho45/arm-cs-tools/arm-none-eabi/lib//libc.a(lib_a-printf.o) (_vfprintf_r)
/Users/cho45/arm-cs-tools/arm-none-eabi/lib//libc.a(lib_a-vsnprintf.o)
                              /Users/cho45/project/raspberrypi-mruby-bare-metal/mruby/build/arm-eabi-raspberry-pi/lib/libmruby.a(backtrace.o) (vsnprintf)
/Users/cho45/arm-cs-tools/arm-none-eabi/lib//libc.a(lib_a-wbuf.o)
                              /Users/cho45/project/raspberrypi-mruby-bare-metal/mruby/build/arm-eabi-raspberry-pi/lib/libmruby.a(print.o) (__swbuf_r)
/Users/cho45/arm-cs-tools/arm-none-eabi/lib//libc.a(lib_a-writer.o)
                              /Users/cho45/arm-cs-tools/arm-none-eabi/lib//libc.a(lib_a-stdio.o) (_write_r)
/Users/cho45/arm-cs-tools/arm-none-eabi/lib//libc.a(lib_a-wsetup.o)
                              /Users/cho45/arm-cs-tools/arm-none-eabi/lib//libc.a(lib_a-fvwrite.o) (__swsetup_r)
/Users/cho45/arm-cs-tools/arm-none-eabi/lib//libc.a(lib_a-__call_atexit.o)
                              /Users/cho45/arm-cs-tools/arm-none-eabi/lib//libc.a(lib_a-exit.o) (__call_exitprocs)
/Users/cho45/arm-cs-tools/arm-none-eabi/lib//libc.a(lib_a-atexit.o)
                              /Users/cho45/arm-cs-tools/arm-none-eabi/lib//libc.a(lib_a-__call_atexit.o) (atexit)
/Users/cho45/arm-cs-tools/arm-none-eabi/lib//libc.a(lib_a-closer.o)
                              /Users/cho45/arm-cs-tools/arm-none-eabi/lib//libc.a(lib_a-stdio.o) (_close_r)
/Users/cho45/arm-cs-tools/arm-none-eabi/lib//libc.a(lib_a-dtoa.o)
                              /Users/cho45/arm-cs-tools/arm-none-eabi/lib//libc.a(lib_a-vfprintf.o) (_dtoa_r)
/Users/cho45/arm-cs-tools/arm-none-eabi/lib//libc.a(lib_a-fflush.o)
                              /Users/cho45/arm-cs-tools/arm-none-eabi/lib//libc.a(lib_a-fseek.o) (_fflush_r)
/Users/cho45/arm-cs-tools/arm-none-eabi/lib//libc.a(lib_a-findfp.o)
                              /Users/cho45/arm-cs-tools/arm-none-eabi/lib//libc.a(lib_a-makebuf.o) (_cleanup_r)
/Users/cho45/arm-cs-tools/arm-none-eabi/lib//libc.a(lib_a-fini.o)
                              /Users/cho45/arm-cs-tools/arm-none-eabi/lib//libc.a(lib_a-__call_atexit.o) (__libc_fini_array)
/Users/cho45/arm-cs-tools/arm-none-eabi/lib//libc.a(lib_a-freer.o)
                              /Users/cho45/arm-cs-tools/arm-none-eabi/lib//libc.a(lib_a-fseek.o) (_free_r)
/Users/cho45/arm-cs-tools/arm-none-eabi/lib//libc.a(lib_a-fwalk.o)
                              /Users/cho45/arm-cs-tools/arm-none-eabi/lib//libc.a(lib_a-refill.o) (_fwalk)
/Users/cho45/arm-cs-tools/arm-none-eabi/lib//libc.a(lib_a-gdtoa-gethex.o)
                              /Users/cho45/arm-cs-tools/arm-none-eabi/lib//libc.a(lib_a-strtod.o) (__gethex)
/Users/cho45/arm-cs-tools/arm-none-eabi/lib//libc.a(lib_a-gdtoa-hexnan.o)
                              /Users/cho45/arm-cs-tools/arm-none-eabi/lib//libc.a(lib_a-strtod.o) (__hexnan)
/Users/cho45/arm-cs-tools/arm-none-eabi/lib//libc.a(lib_a-isattyr.o)
                              /Users/cho45/arm-cs-tools/arm-none-eabi/lib//libc.a(lib_a-makebuf.o) (_isatty_r)
/Users/cho45/arm-cs-tools/arm-none-eabi/lib//libc.a(lib_a-locale.o)
                              /Users/cho45/arm-cs-tools/arm-none-eabi/lib//libc.a(lib_a-strtod.o) (_localeconv_r)
/Users/cho45/arm-cs-tools/arm-none-eabi/lib//libc.a(lib_a-lseekr.o)
                              /Users/cho45/arm-cs-tools/arm-none-eabi/lib//libc.a(lib_a-stdio.o) (_lseek_r)
/Users/cho45/arm-cs-tools/arm-none-eabi/lib//libc.a(lib_a-mprec.o)
                              /Users/cho45/arm-cs-tools/arm-none-eabi/lib//libc.a(lib_a-strtod.o) (_Balloc)
/Users/cho45/arm-cs-tools/arm-none-eabi/lib//libc.a(lib_a-readr.o)
                              /Users/cho45/arm-cs-tools/arm-none-eabi/lib//libc.a(lib_a-stdio.o) (_read_r)
/Users/cho45/arm-cs-tools/arm-none-eabi/lib//libc.a(lib_a-strncmp.o)
                              /Users/cho45/arm-cs-tools/arm-none-eabi/lib//libc.a(lib_a-strtod.o) (strncmp)
/Users/cho45/arm-cs-tools/arm-none-eabi/lib//libc.a(lib_a-svfprintf.o)
                              /Users/cho45/arm-cs-tools/arm-none-eabi/lib//libc.a(lib_a-vsnprintf.o) (_svfprintf_r)
/Users/cho45/arm-cs-tools/arm-none-eabi/lib//libc.a(lib_a-vfiprintf.o)
                              /Users/cho45/arm-cs-tools/arm-none-eabi/lib//libc.a(lib_a-vfprintf.o) (__sprint_r)
/Users/cho45/arm-cs-tools/arm-none-eabi/lib//libc.a(lib_a-__atexit.o)
                              /Users/cho45/arm-cs-tools/arm-none-eabi/lib//libc.a(lib_a-atexit.o) (__register_exitproc)
/Users/cho45/arm-cs-tools/arm-none-eabi/lib//libc.a(lib_a-callocr.o)
                              /Users/cho45/arm-cs-tools/arm-none-eabi/lib//libc.a(lib_a-mprec.o) (_calloc_r)
/Users/cho45/arm-cs-tools/arm-none-eabi/lib//libc.a(lib_a-fclose.o)
                              /Users/cho45/arm-cs-tools/arm-none-eabi/lib//libc.a(lib_a-findfp.o) (fclose)
/Users/cho45/arm-cs-tools/arm-none-eabi/lib//libc.a(lib_a-fputwc.o)
                              /Users/cho45/arm-cs-tools/arm-none-eabi/lib//libc.a(lib_a-vfiprintf.o) (_fputwc_r)
/Users/cho45/arm-cs-tools/arm-none-eabi/lib//libc.a(lib_a-svfiprintf.o)
                              /Users/cho45/arm-cs-tools/arm-none-eabi/lib//libc.a(lib_a-svfprintf.o) (__ssprint_r)
/Users/cho45/arm-cs-tools/arm-none-eabi/lib//libc.a(lib_a-wcrtomb.o)
                              /Users/cho45/arm-cs-tools/arm-none-eabi/lib//libc.a(lib_a-fputwc.o) (_wcrtomb_r)
/Users/cho45/arm-cs-tools/arm-none-eabi/lib//libc.a(lib_a-wctomb_r.o)
                              /Users/cho45/arm-cs-tools/arm-none-eabi/lib//libc.a(lib_a-wcrtomb.o) (__wctomb)
/Users/cho45/arm-cs-tools/arm-none-eabi/lib//libm.a(lib_a-s_ceil.o)
                              /Users/cho45/project/raspberrypi-mruby-bare-metal/mruby/build/arm-eabi-raspberry-pi/lib/libmruby.a(numeric.o) (ceil)
/Users/cho45/arm-cs-tools/arm-none-eabi/lib//libm.a(lib_a-s_floor.o)
                              /Users/cho45/project/raspberrypi-mruby-bare-metal/mruby/build/arm-eabi-raspberry-pi/lib/libmruby.a(numeric.o) (floor)
/Users/cho45/arm-cs-tools/arm-none-eabi/lib//libm.a(lib_a-w_fmod.o)
                              /Users/cho45/project/raspberrypi-mruby-bare-metal/mruby/build/arm-eabi-raspberry-pi/lib/libmruby.a(numeric.o) (fmod)
/Users/cho45/arm-cs-tools/arm-none-eabi/lib//libm.a(lib_a-w_log10.o)
                              /Users/cho45/project/raspberrypi-mruby-bare-metal/mruby/build/arm-eabi-raspberry-pi/lib/libmruby.a(numeric.o) (log10)
/Users/cho45/arm-cs-tools/arm-none-eabi/lib//libm.a(lib_a-w_pow.o)
                              /Users/cho45/project/raspberrypi-mruby-bare-metal/mruby/build/arm-eabi-raspberry-pi/lib/libmruby.a(numeric.o) (pow)
/Users/cho45/arm-cs-tools/arm-none-eabi/lib//libm.a(lib_a-e_fmod.o)
                              /Users/cho45/arm-cs-tools/arm-none-eabi/lib//libm.a(lib_a-w_fmod.o) (__ieee754_fmod)
/Users/cho45/arm-cs-tools/arm-none-eabi/lib//libm.a(lib_a-e_log10.o)
                              /Users/cho45/arm-cs-tools/arm-none-eabi/lib//libm.a(lib_a-w_log10.o) (__ieee754_log10)
/Users/cho45/arm-cs-tools/arm-none-eabi/lib//libm.a(lib_a-e_pow.o)
                              /Users/cho45/arm-cs-tools/arm-none-eabi/lib//libm.a(lib_a-w_pow.o) (__ieee754_pow)
/Users/cho45/arm-cs-tools/arm-none-eabi/lib//libm.a(lib_a-e_sqrt.o)
                              /Users/cho45/arm-cs-tools/arm-none-eabi/lib//libm.a(lib_a-e_pow.o) (__ieee754_sqrt)
/Users/cho45/arm-cs-tools/arm-none-eabi/lib//libm.a(lib_a-s_fabs.o)
                              /Users/cho45/arm-cs-tools/arm-none-eabi/lib//libm.a(lib_a-e_pow.o) (fabs)
/Users/cho45/arm-cs-tools/arm-none-eabi/lib//libm.a(lib_a-s_finite.o)
                              /Users/cho45/arm-cs-tools/arm-none-eabi/lib//libm.a(lib_a-w_pow.o) (finite)
/Users/cho45/arm-cs-tools/arm-none-eabi/lib//libm.a(lib_a-s_lib_ver.o)
                              /Users/cho45/arm-cs-tools/arm-none-eabi/lib//libm.a(lib_a-w_fmod.o) (__fdlib_version)
/Users/cho45/arm-cs-tools/arm-none-eabi/lib//libm.a(lib_a-s_matherr.o)
                              /Users/cho45/arm-cs-tools/arm-none-eabi/lib//libm.a(lib_a-w_fmod.o) (matherr)
/Users/cho45/arm-cs-tools/arm-none-eabi/lib//libm.a(lib_a-s_nan.o)
                              /Users/cho45/arm-cs-tools/arm-none-eabi/lib//libm.a(lib_a-w_log10.o) (nan)
/Users/cho45/arm-cs-tools/arm-none-eabi/lib//libm.a(lib_a-s_rint.o)
                              /Users/cho45/arm-cs-tools/arm-none-eabi/lib//libm.a(lib_a-w_pow.o) (rint)
/Users/cho45/arm-cs-tools/arm-none-eabi/lib//libm.a(lib_a-s_scalbn.o)
                              /Users/cho45/arm-cs-tools/arm-none-eabi/lib//libm.a(lib_a-e_pow.o) (scalbn)
/Users/cho45/arm-cs-tools/arm-none-eabi/lib//libm.a(lib_a-e_log.o)
                              /Users/cho45/arm-cs-tools/arm-none-eabi/lib//libm.a(lib_a-e_log10.o) (__ieee754_log)
/Users/cho45/arm-cs-tools/arm-none-eabi/lib//libm.a(lib_a-s_copysign.o)
                              /Users/cho45/arm-cs-tools/arm-none-eabi/lib//libm.a(lib_a-s_scalbn.o) (copysign)
/Users/cho45/arm-cs-tools/lib/gcc/arm-none-eabi/4.7.3/libgcc.a(_udivsi3.o)
                              /Users/cho45/project/raspberrypi-mruby-bare-metal/mruby/build/arm-eabi-raspberry-pi/lib/libmruby.a(gc.o) (__aeabi_uidiv)
/Users/cho45/arm-cs-tools/lib/gcc/arm-none-eabi/4.7.3/libgcc.a(_divsi3.o)
                              /Users/cho45/project/raspberrypi-mruby-bare-metal/mruby/build/arm-eabi-raspberry-pi/lib/libmruby.a(string.o) (__aeabi_idiv)
/Users/cho45/arm-cs-tools/lib/gcc/arm-none-eabi/4.7.3/libgcc.a(_dvmd_tls.o)
                              /Users/cho45/arm-cs-tools/lib/gcc/arm-none-eabi/4.7.3/libgcc.a(_udivsi3.o) (__aeabi_idiv0)
/Users/cho45/arm-cs-tools/lib/gcc/arm-none-eabi/4.7.3/libgcc.a(_arm_addsubdf3.o)
                              /Users/cho45/project/raspberrypi-mruby-bare-metal/mruby/build/arm-eabi-raspberry-pi/lib/libmruby.a(vm.o) (__aeabi_dsub)
/Users/cho45/arm-cs-tools/lib/gcc/arm-none-eabi/4.7.3/libgcc.a(_arm_muldivdf3.o)
                              /Users/cho45/project/raspberrypi-mruby-bare-metal/mruby/build/arm-eabi-raspberry-pi/lib/libmruby.a(vm.o) (__aeabi_dmul)
/Users/cho45/arm-cs-tools/lib/gcc/arm-none-eabi/4.7.3/libgcc.a(_arm_cmpdf2.o)
                              /Users/cho45/project/raspberrypi-mruby-bare-metal/mruby/build/arm-eabi-raspberry-pi/lib/libmruby.a(vm.o) (__aeabi_dcmpeq)
/Users/cho45/arm-cs-tools/lib/gcc/arm-none-eabi/4.7.3/libgcc.a(_arm_fixdfsi.o)
                              /Users/cho45/project/raspberrypi-mruby-bare-metal/mruby/build/arm-eabi-raspberry-pi/lib/libmruby.a(class.o) (__aeabi_d2iz)
/Users/cho45/arm-cs-tools/lib/gcc/arm-none-eabi/4.7.3/libgcc.a(_arm_fixunsdfsi.o)
                              /Users/cho45/arm-cs-tools/arm-none-eabi/lib//libc.a(lib_a-strtod.o) (__aeabi_d2uiz)
/Users/cho45/arm-cs-tools/lib/gcc/arm-none-eabi/4.7.3/libgcc.a(_arm_truncdfsf2.o)
                              /Users/cho45/arm-cs-tools/arm-none-eabi/lib//libc.a(lib_a-strtod.o) (__aeabi_d2f)
/Users/cho45/arm-cs-tools/lib/gcc/arm-none-eabi/4.7.3/libgcc.a(_arm_cmpsf2.o)
                              /Users/cho45/arm-cs-tools/arm-none-eabi/lib//libc.a(lib_a-strtod.o) (__aeabi_fcmpeq)
/Users/cho45/arm-cs-tools/lib/gcc/arm-none-eabi/4.7.3/libgcc.a(_aeabi_uldivmod.o)
                              /Users/cho45/arm-cs-tools/arm-none-eabi/lib//libc.a(lib_a-vfprintf.o) (__aeabi_uldivmod)
/Users/cho45/arm-cs-tools/lib/gcc/arm-none-eabi/4.7.3/libgcc.a(bpabi.o)
                              /Users/cho45/arm-cs-tools/lib/gcc/arm-none-eabi/4.7.3/libgcc.a(_aeabi_uldivmod.o) (__gnu_uldivmod_helper)
/Users/cho45/arm-cs-tools/lib/gcc/arm-none-eabi/4.7.3/libgcc.a(_divdi3.o)
                              /Users/cho45/arm-cs-tools/lib/gcc/arm-none-eabi/4.7.3/libgcc.a(bpabi.o) (__divdi3)
/Users/cho45/arm-cs-tools/lib/gcc/arm-none-eabi/4.7.3/libgcc.a(_udivdi3.o)
                              /Users/cho45/arm-cs-tools/lib/gcc/arm-none-eabi/4.7.3/libgcc.a(bpabi.o) (__udivdi3)
/Users/cho45/arm-cs-tools/lib/gcc/arm-none-eabi/4.7.3/libgcc.a(_clzsi2.o)
                              /Users/cho45/arm-cs-tools/lib/gcc/arm-none-eabi/4.7.3/libgcc.a(_divdi3.o) (__clzsi2)

Allocating common symbols
Common symbol       size              file

prev_heap_end       0x4               syscalls.o
n                   0x4               main.o
errno               0x4               /Users/cho45/arm-cs-tools/arm-none-eabi/lib//libc.a(lib_a-reent.o)
mrb                 0x4               main.o
__hexdig            0x100             /Users/cho45/arm-cs-tools/arm-none-eabi/lib//libc.a(lib_a-gdtoa-gethex.o)

Memory Configuration

Name             Origin             Length             Attributes
RAM              0x0000000000008000 0x0000000010000000
*default*        0x0000000000000000 0xffffffffffffffff

Linker script and memory map

LOAD vectors.o
LOAD main.o
LOAD syscalls.o
                0x0000000000100000                heap_size = 0x100000

.text           0x0000000000008000    0x4f998
 *(.text*)
 .text          0x0000000000008000      0x12c vectors.o
                0x0000000000008000                _start
                0x00000000000080b8                PUT32
                0x00000000000080c0                GET32
                0x00000000000080c8                dummy
                0x00000000000080cc                bss_start
                0x00000000000080d0                bss_end
                0x00000000000080e8                text_end
                0x00000000000080ec                mem_end
                0x00000000000080f0                heap_start
                0x00000000000080f4                heap_limit
                0x00000000000080f8                enable_irq
 .text          0x000000000000812c      0x134 main.o
                0x000000000000812c                TIM2_IRQHandler
                0x0000000000008140                main
 .text          0x0000000000008260      0x42c syscalls.o
                0x0000000000008260                initialise_monitor_handles
                0x0000000000008274                _read
                0x00000000000082a0                _lseek
                0x00000000000082cc                _write
                0x00000000000082f8                _open
                0x0000000000008324                _close
                0x0000000000008348                _exit
                0x000000000000835c                _kill
                0x0000000000008384                _getpid
                0x00000000000083a8                _sbrk
                0x000000000000845c                _fstat
                0x0000000000008484                _stat
                0x00000000000084ac                _link
                0x00000000000084c8                _unlink
                0x00000000000084e4                _raise
                0x00000000000084fc                _gettimeofday
                0x000000000000856c                _times
                0x00000000000085d4                _isatty
                0x00000000000085f8                _system
                0x000000000000863c                _rename
                0x0000000000008670                _fini
 .text          0x000000000000868c     0x201c /Users/cho45/project/raspberrypi-mruby-bare-metal/mruby/build/arm-eabi-raspberry-pi/lib/libmruby.a(load.o)
                0x0000000000009954                mrb_read_irep
                0x0000000000009be8                mrb_load_irep_cxt
                0x0000000000009cec                mrb_load_irep
                0x000000000000a10c                mrb_read_irep_file
                0x000000000000a568                mrb_load_irep_file_cxt
                0x000000000000a66c                mrb_load_irep_file
 .text          0x000000000000a6a8      0xb5c /Users/cho45/project/raspberrypi-mruby-bare-metal/mruby/build/arm-eabi-raspberry-pi/lib/libmruby.a(proc.o)
                0x000000000000a744                mrb_proc_new
                0x000000000000a95c                mrb_closure_new
                0x000000000000a9b8                mrb_proc_new_cfunc
                0x000000000000aa38                mrb_closure_new_cfunc
                0x000000000000aa80                mrb_proc_copy
                0x000000000000ac84                mrb_proc_cfunc_p
                0x000000000000acc4                mrb_proc_call_cfunc
                0x000000000000ad18                mrb_proc_iseq
                0x000000000000af40                mrb_init_proc
 .text          0x000000000000b204      0x9e4 /Users/cho45/project/raspberrypi-mruby-bare-metal/mruby/build/arm-eabi-raspberry-pi/lib/libmruby.a(state.o)
                0x000000000000b2a8                mrb_open_allocf
                0x000000000000b490                mrb_alloca
                0x000000000000b568                mrb_open
                0x000000000000b598                mrb_irep_incref
                0x000000000000b5cc                mrb_irep_decref
                0x000000000000b618                mrb_irep_free
                0x000000000000b7f4                mrb_str_pool
                0x000000000000b940                mrb_free_context
                0x000000000000b9cc                mrb_close
                0x000000000000ba40                mrb_add_irep
                0x000000000000bb28                mrb_top_self
 .text          0x000000000000bbe8     0x7218 /Users/cho45/project/raspberrypi-mruby-bare-metal/mruby/build/arm-eabi-raspberry-pi/lib/libmruby.a(string.o)
                0x000000000000be30                mrb_str_modify
                0x000000000000c074                mrb_str_resize
                0x000000000000c16c                mrb_str_offset
                0x000000000000c318                mrb_str_buf_new
                0x000000000000c5cc                mrb_str_buf_cat
                0x000000000000c650                mrb_str_new
                0x000000000000c6a0                mrb_str_new_cstr
                0x000000000000c744                mrb_str_new_static
                0x000000000000c7d8                mrb_gc_free_str
                0x000000000000c850                mrb_str_to_cstr
                0x000000000000caac                mrb_str_body
                0x000000000000caf0                mrb_str_concat
                0x000000000000cc28                mrb_str_plus
                0x000000000000cdd8                mrb_str_size
                0x000000000000d030                mrb_str_cmp
                0x000000000000d3f0                mrb_str_equal
                0x000000000000d61c                mrb_str_to_str
                0x000000000000d73c                mrb_string_value_ptr
                0x000000000000dc88                mrb_str_dup
                0x000000000000ecf8                mrb_str_substr
                0x000000000000ee50                mrb_str_buf_append
                0x000000000000eed8                mrb_str_hash
                0x000000000000f714                mrb_str_intern
                0x000000000000f784                mrb_obj_as_string
                0x000000000000f864                mrb_ptr_to_str
                0x000000000000f9b0                mrb_string_type
                0x000000000000fa2c                mrb_check_string_type
                0x0000000000010884                mrb_cstr_to_inum
                0x0000000000011058                mrb_string_value_cstr
                0x00000000000110e8                mrb_str_to_inum
                0x00000000000112f0                mrb_cstr_to_dbl
                0x00000000000116b8                mrb_str_to_dbl
                0x0000000000011ad8                mrb_str_dump
                0x00000000000121ac                mrb_str_cat
                0x0000000000012240                mrb_str_cat_cstr
                0x00000000000122b4                mrb_str_append
                0x0000000000012348                mrb_str_inspect
                0x0000000000012814                mrb_init_string
 .text          0x0000000000012e00     0x22c4 /Users/cho45/project/raspberrypi-mruby-bare-metal/mruby/build/arm-eabi-raspberry-pi/lib/libmruby.a(symbol.o)
                0x000000000001307c                kh_alloc_n2s
                0x0000000000013190                kh_init_n2s_size
                0x0000000000013270                kh_init_n2s
                0x000000000001329c                kh_destroy_n2s
                0x00000000000132e4                kh_clear_n2s
                0x000000000001335c                kh_get_n2s
                0x00000000000134c8                kh_resize_n2s
                0x000000000001367c                kh_put_n2s
                0x0000000000013974                kh_del_n2s
                0x00000000000139f0                kh_copy_n2s
                0x0000000000013c74                mrb_intern
                0x0000000000013cb0                mrb_intern_static
                0x0000000000013cec                mrb_intern_cstr
                0x0000000000013d2c                mrb_intern_str
                0x0000000000013d80                mrb_check_intern
                0x0000000000013e6c                mrb_check_intern_cstr
                0x0000000000013eb0                mrb_check_intern_str
                0x0000000000013f04                mrb_sym2name_len
                0x0000000000014014                mrb_free_symtbl
                0x00000000000140f0                mrb_init_symtbl
                0x00000000000141b4                mrb_sym_to_s
                0x0000000000014cc8                mrb_sym2str
                0x0000000000014d40                mrb_sym2name
                0x0000000000014fa4                mrb_init_symbol
 .text          0x00000000000150c4     0x320c /Users/cho45/project/raspberrypi-mruby-bare-metal/mruby/build/arm-eabi-raspberry-pi/lib/libmruby.a(variable.o)
                0x00000000000152a0                kh_alloc_iv
                0x00000000000153b4                kh_init_iv_size
                0x0000000000015494                kh_init_iv
                0x00000000000154c0                kh_destroy_iv
                0x0000000000015508                kh_clear_iv
                0x0000000000015580                kh_get_iv
                0x00000000000156b8                kh_resize_iv
                0x0000000000015878                kh_put_iv
                0x0000000000015b30                kh_del_iv
                0x0000000000015bac                kh_copy_iv
                0x0000000000016118                mrb_gc_mark_gv
                0x0000000000016144                mrb_gc_free_gv
                0x0000000000016180                mrb_gc_mark_iv
                0x00000000000161b0                mrb_gc_mark_iv_size
                0x00000000000161e8                mrb_gc_free_iv
                0x0000000000016228                mrb_vm_special_get
                0x0000000000016260                mrb_vm_special_set
                0x00000000000162e0                mrb_obj_iv_get
                0x0000000000016360                mrb_iv_get
                0x00000000000163d4                mrb_obj_iv_set
                0x0000000000016460                mrb_obj_iv_ifnone
                0x000000000001651c                mrb_iv_set
                0x00000000000165b4                mrb_obj_iv_defined
                0x0000000000016618                mrb_iv_defined
                0x0000000000016684                mrb_iv_copy
                0x0000000000016940                mrb_obj_iv_inspect
                0x0000000000016b64                mrb_iv_remove
                0x0000000000016c0c                mrb_vm_iv_get
                0x0000000000016c6c                mrb_vm_iv_set
                0x0000000000016db4                mrb_obj_instance_variables
                0x0000000000016f3c                mrb_mod_class_variables
                0x0000000000016ff8                mrb_mod_cv_get
                0x0000000000017104                mrb_cv_get
                0x0000000000017150                mrb_mod_cv_set
                0x0000000000017268                mrb_cv_set
                0x00000000000172bc                mrb_mod_cv_defined
                0x000000000001734c                mrb_cv_defined
                0x0000000000017398                mrb_vm_cv_get
                0x0000000000017410                mrb_vm_cv_set
                0x000000000001749c                mrb_const_defined
                0x0000000000017700                mrb_const_get
                0x000000000001776c                mrb_vm_const_get
                0x00000000000178b8                mrb_const_set
                0x000000000001793c                mrb_vm_const_set
                0x00000000000179c8                mrb_const_remove
                0x0000000000017a44                mrb_define_const
                0x0000000000017a98                mrb_define_global_const
                0x0000000000017bd0                mrb_mod_constants
                0x0000000000017ca8                mrb_gv_get
                0x0000000000017d38                mrb_gv_set
                0x0000000000017dcc                mrb_gv_remove
                0x0000000000017eb0                mrb_f_global_variables
                0x00000000000180e0                mrb_const_defined_at
                0x000000000001812c                mrb_attr_get
                0x0000000000018214                mrb_class_sym
 .text          0x00000000000182d0     0x8ba8 /Users/cho45/project/raspberrypi-mruby-bare-metal/mruby/build/arm-eabi-raspberry-pi/lib/libmruby.a(vm.o)
                0x0000000000019118                mrb_funcall
                0x0000000000019308                mrb_funcall_with_block
                0x0000000000019860                mrb_funcall_argv
                0x00000000000198f0                mrb_yield_internal
                0x0000000000019bac                mrb_yield_argv
                0x0000000000019c44                mrb_yield
                0x0000000000019fd4                mrb_context_run
                0x0000000000020df0                mrb_run
                0x0000000000020e54                mrb_longjmp
 .text          0x0000000000020e78     0x4390 /Users/cho45/project/raspberrypi-mruby-bare-metal/mruby/build/arm-eabi-raspberry-pi/lib/libmruby.a(array.o)
                0x0000000000021304                mrb_ary_new_capa
                0x0000000000021348                mrb_ary_new
                0x00000000000213f4                mrb_ary_new_from_values
                0x0000000000021474                mrb_assoc_new
                0x00000000000216c4                mrb_ary_modify
                0x0000000000021b58                mrb_ary_concat
                0x0000000000021ff0                mrb_ary_replace
                0x0000000000022454                mrb_ary_push
                0x00000000000225e0                mrb_ary_pop
                0x0000000000022678                mrb_ary_shift
                0x00000000000227f0                mrb_ary_unshift
                0x0000000000022b38                mrb_ary_ref
                0x0000000000022be8                mrb_ary_set
                0x0000000000022d64                mrb_ary_splice
                0x0000000000023020                mrb_ary_decref
                0x0000000000023ce8                mrb_ary_splat
                0x0000000000023e30                mrb_ary_clear
                0x0000000000023f28                mrb_check_array_type
                0x0000000000023fa4                mrb_ary_entry
                0x00000000000247e8                mrb_ary_join
                0x0000000000024d48                mrb_init_array
 .text          0x0000000000025208     0x6b00 /Users/cho45/project/raspberrypi-mruby-bare-metal/mruby/build/arm-eabi-raspberry-pi/lib/libmruby.a(class.o)
                0x0000000000025508                kh_alloc_mt
                0x000000000002561c                kh_init_mt_size
                0x00000000000256fc                kh_init_mt
                0x0000000000025728                kh_destroy_mt
                0x0000000000025770                kh_clear_mt
                0x00000000000257e8                kh_get_mt
                0x0000000000025920                kh_resize_mt
                0x0000000000025adc                kh_put_mt
                0x0000000000025d94                kh_del_mt
                0x0000000000025e10                kh_copy_mt
                0x0000000000025f08                mrb_gc_mark_mt
                0x0000000000025fe0                mrb_gc_mark_mt_size
                0x000000000002602c                mrb_gc_free_mt
                0x0000000000026474                mrb_class_outer_module
                0x000000000002656c                mrb_define_module_id
                0x00000000000265b0                mrb_define_module
                0x0000000000026600                mrb_vm_define_module
                0x000000000002664c                mrb_define_module_under
                0x0000000000026808                mrb_define_class_id
                0x000000000002689c                mrb_define_class
                0x00000000000268e4                mrb_vm_define_class
                0x0000000000026a70                mrb_class_defined
                0x0000000000026b0c                mrb_class_get_under
                0x0000000000026b54                mrb_class_get
                0x0000000000026b90                mrb_module_get_under
                0x0000000000026bd8                mrb_module_get
                0x0000000000026c14                mrb_define_class_under
                0x0000000000026c84                mrb_define_method_raw
                0x0000000000026d30                mrb_define_method_id
                0x0000000000026da0                mrb_define_method
                0x0000000000026df0                mrb_define_method_vm
                0x0000000000027104                mrb_get_args
                0x000000000002801c                mrb_include_module
                0x000000000002887c                mrb_mod_module_eval
                0x0000000000028954                mrb_mod_dummy_visibility
                0x000000000002899c                mrb_singleton_class
                0x0000000000028af0                mrb_define_singleton_method
                0x0000000000028b54                mrb_define_class_method
                0x0000000000028b94                mrb_define_module_function
                0x0000000000028bf0                mrb_method_search_vm
                0x0000000000028ccc                mrb_method_search
                0x0000000000028edc                mrb_instance_new
                0x0000000000028fd4                mrb_obj_new
                0x0000000000029218                mrb_class_superclass
                0x0000000000029518                mrb_obj_respond_to
                0x00000000000295d4                mrb_respond_to
                0x0000000000029640                mrb_class_path
                0x0000000000029870                mrb_class_real
                0x00000000000298c4                mrb_class_name
                0x00000000000299c4                mrb_obj_classname
                0x0000000000029a28                mrb_check_inheritable
                0x0000000000029b08                mrb_class_new
                0x0000000000029bb4                mrb_module_new
                0x0000000000029c04                mrb_obj_class
                0x0000000000029c64                mrb_alias_method
                0x0000000000029cd4                mrb_define_alias
                0x000000000002a0c0                mrb_mod_alias
                0x000000000002a218                mrb_undef_method
                0x000000000002a258                mrb_undef_class_method
                0x000000000002a2c4                mrb_mod_undef
                0x000000000002a984                mrb_mod_remove_cvar
                0x000000000002ad08                mrb_mod_remove_method
                0x000000000002af38                mrb_mod_const_defined
                0x000000000002b088                mrb_mod_const_get
                0x000000000002b11c                mrb_mod_const_set
                0x000000000002b1cc                mrb_mod_remove_const
                0x000000000002b2c8                mrb_mod_const_missing
                0x000000000002b460                mrb_init_class
 .text          0x000000000002bd08       0xdc /Users/cho45/project/raspberrypi-mruby-bare-metal/mruby/build/arm-eabi-raspberry-pi/lib/libmruby.a(crc.o)
                0x000000000002bd08                calc_crc_16_ccitt
 .text          0x000000000002bde4      0x91c /Users/cho45/project/raspberrypi-mruby-bare-metal/mruby/build/arm-eabi-raspberry-pi/lib/libmruby.a(debug.o)
                0x000000000002bf78                mrb_debug_get_filename
                0x000000000002c010                mrb_debug_get_line
                0x000000000002c1a8                mrb_debug_info_alloc
                0x000000000002c20c                mrb_debug_info_append_file
                0x000000000002c634                mrb_debug_info_free
 .text          0x000000000002c700     0x1df0 /Users/cho45/project/raspberrypi-mruby-bare-metal/mruby/build/arm-eabi-raspberry-pi/lib/libmruby.a(error.o)
                0x000000000002c8d0                mrb_exc_new
                0x000000000002c96c                mrb_exc_new_str
                0x000000000002d6ec                mrb_exc_raise
                0x000000000002d774                mrb_raise
                0x000000000002d7ec                mrb_vformat
                0x000000000002dad8                mrb_format
                0x000000000002db38                mrb_raisef
                0x000000000002dbc4                mrb_name_error
                0x000000000002dc98                mrb_warn
                0x000000000002dd2c                mrb_bug
                0x000000000002e148                mrb_make_exception
                0x000000000002e190                mrb_sys_fail
                0x000000000002e318                mrb_init_exception
 .text          0x000000000002e4f0     0x2a14 /Users/cho45/project/raspberrypi-mruby-bare-metal/mruby/build/arm-eabi-raspberry-pi/lib/libmruby.a(gc.o)
                0x000000000002e5dc                mrb_realloc_simple
                0x000000000002e67c                mrb_realloc
                0x000000000002e738                mrb_malloc
                0x000000000002e76c                mrb_malloc_simple
                0x000000000002e7a0                mrb_calloc
                0x000000000002e854                mrb_free
                0x000000000002eb4c                mrb_init_heap
                0x000000000002ebbc                mrb_free_heap
                0x000000000002ed4c                mrb_gc_protect
                0x000000000002ed9c                mrb_obj_alloc
                0x000000000002f4cc                mrb_gc_mark
                0x0000000000030338                mrb_incremental_gc
                0x00000000000304f8                mrb_full_gc
                0x000000000003060c                mrb_garbage_collect
                0x000000000003062c                mrb_gc_arena_save
                0x0000000000030654                mrb_gc_arena_restore
                0x0000000000030750                mrb_field_write_barrier
                0x0000000000030820                mrb_write_barrier
                0x0000000000030cfc                mrb_objspace_each_objects
                0x0000000000030d94                mrb_init_gc
 .text          0x0000000000030f04     0x39b8 /Users/cho45/project/raspberrypi-mruby-bare-metal/mruby/build/arm-eabi-raspberry-pi/lib/libmruby.a(hash.o)
                0x0000000000031230                kh_alloc_ht
                0x0000000000031344                kh_init_ht_size
                0x0000000000031424                kh_init_ht
                0x0000000000031450                kh_destroy_ht
                0x0000000000031498                kh_clear_ht
                0x0000000000031510                kh_get_ht
                0x0000000000031670                kh_resize_ht
                0x0000000000031838                kh_put_ht
                0x0000000000031b2c                kh_del_ht
                0x0000000000031ba8                kh_copy_ht
                0x0000000000031d2c                mrb_gc_mark_hash
                0x0000000000031e48                mrb_gc_mark_hash_size
                0x0000000000031e94                mrb_gc_free_hash
                0x0000000000031ed4                mrb_hash_new_capa
                0x0000000000031f6c                mrb_hash_new
                0x0000000000031fa0                mrb_hash_get
                0x000000000003214c                mrb_hash_fetch
                0x0000000000032210                mrb_hash_set
                0x000000000003251c                mrb_check_hash_type
                0x0000000000032598                mrb_hash_tbl
                0x0000000000032d18                mrb_hash_delete_key
                0x000000000003313c                mrb_hash_clear
                0x00000000000335e4                mrb_hash_empty_p
                0x0000000000033a50                mrb_hash_keys
                0x0000000000034428                mrb_init_hash
 .text          0x00000000000348bc      0x188 /Users/cho45/project/raspberrypi-mruby-bare-metal/mruby/build/arm-eabi-raspberry-pi/lib/libmruby.a(init.o)
                0x00000000000348bc                mrb_init_core
                0x0000000000034a28                mrb_final_core
 .text          0x0000000000034a44     0x38bc /Users/cho45/project/raspberrypi-mruby-bare-metal/mruby/build/arm-eabi-raspberry-pi/lib/libmruby.a(kernel.o)
                0x0000000000034dd8                mrb_obj_basic_to_s_p
                0x0000000000034ea0                mrb_obj_inspect
                0x0000000000035428                mrb_singleton_class_clone
                0x000000000003578c                mrb_obj_clone
                0x00000000000358c0                mrb_obj_dup
                0x0000000000035b70                mrb_obj_extend_m
                0x0000000000035bec                mrb_obj_hash
                0x0000000000035c40                mrb_obj_init_copy
                0x0000000000035d7c                mrb_obj_instance_eval
                0x0000000000035ea8                mrb_obj_is_instance_of
                0x0000000000036124                mrb_obj_ivar_defined
                0x00000000000361cc                mrb_obj_ivar_get
                0x0000000000036270                mrb_obj_ivar_set
                0x0000000000036330                mrb_obj_is_kind_of_m
                0x00000000000363c0                kh_alloc_st
                0x00000000000364c8                kh_init_st_size
                0x00000000000365a8                kh_init_st
                0x00000000000365d4                kh_destroy_st
                0x000000000003661c                kh_clear_st
                0x0000000000036694                kh_get_st
                0x00000000000367cc                kh_resize_st
                0x000000000003695c                kh_put_st
                0x0000000000036c14                kh_del_st
                0x0000000000036c90                kh_copy_st
                0x0000000000036e2c                mrb_class_instance_method_list
                0x0000000000036fd8                mrb_obj_singleton_methods
                0x00000000000371b4                mrb_obj_methods
                0x0000000000037254                mrb_obj_methods_m
                0x00000000000372d8                mrb_false
                0x0000000000037318                mrb_obj_private_methods
                0x000000000003739c                mrb_obj_protected_methods
                0x0000000000037420                mrb_obj_public_methods
                0x00000000000374a4                mrb_f_raise
                0x0000000000037670                mrb_obj_remove_instance_variable
                0x0000000000037ab4                mrb_obj_singleton_methods_m
                0x0000000000037c88                mrb_init_kernel
 .text          0x0000000000038300     0x3a04 /Users/cho45/project/raspberrypi-mruby-bare-metal/mruby/build/arm-eabi-raspberry-pi/lib/libmruby.a(numeric.o)
                0x000000000003866c                mrb_num_div
                0x00000000000387a0                mrb_flo_to_str
                0x0000000000039da0                mrb_fixnum_mul
                0x000000000003ad8c                mrb_flo_to_fixnum
                0x000000000003aec8                mrb_fixnum_plus
                0x000000000003b0dc                mrb_fixnum_minus
                0x000000000003b2c8                mrb_fixnum_to_str
                0x000000000003b6b8                mrb_init_numeric
 .text          0x000000000003bd04     0x1d78 /Users/cho45/project/raspberrypi-mruby-bare-metal/mruby/build/arm-eabi-raspberry-pi/lib/libmruby.a(object.o)
                0x000000000003bf8c                mrb_obj_eq
                0x000000000003c090                mrb_obj_equal
                0x000000000003c0f4                mrb_equal
                0x000000000003c558                mrb_init_object
                0x000000000003ca68                mrb_check_to_integer
                0x000000000003cb4c                mrb_convert_type
                0x000000000003cc8c                mrb_check_convert_type
                0x000000000003cd80                mrb_check_type
                0x000000000003cfcc                mrb_any_to_s
                0x000000000003d178                mrb_obj_is_kind_of
                0x000000000003d414                mrb_to_int
                0x000000000003d748                mrb_Integer
                0x000000000003d7ac                mrb_Float
                0x000000000003d908                mrb_inspect
                0x000000000003d9a8                mrb_eql
 .text          0x000000000003da7c      0x5f0 /Users/cho45/project/raspberrypi-mruby-bare-metal/mruby/build/arm-eabi-raspberry-pi/lib/libmruby.a(print.o)
                0x000000000003db4c                mrb_p
                0x000000000003dcf4                mrb_print_error
                0x000000000003decc                mrb_show_version
                0x000000000003df9c                mrb_show_copyright
 .text          0x000000000003e06c     0x15c8 /Users/cho45/project/raspberrypi-mruby-bare-metal/mruby/build/arm-eabi-raspberry-pi/lib/libmruby.a(range.o)
                0x000000000003e2a0                mrb_range_new
                0x000000000003e390                mrb_range_beg
                0x000000000003e3e4                mrb_range_end
                0x000000000003e43c                mrb_range_excl
                0x000000000003e55c                mrb_range_initialize
                0x000000000003e628                mrb_range_eq
                0x000000000003ea38                mrb_range_include
                0x000000000003eba0                mrb_range_each
                0x000000000003ebe8                mrb_range_beg_len
                0x000000000003f3b8                mrb_init_range
 .text          0x000000000003f634      0x1b0 /Users/cho45/project/raspberrypi-mruby-bare-metal/mruby/build/arm-eabi-raspberry-pi/lib/libmruby.a(version.o)
                0x000000000003f634                mrb_init_version
 .text          0x000000000003f7e4       0x30 /Users/cho45/project/raspberrypi-mruby-bare-metal/mruby/build/arm-eabi-raspberry-pi/lib/libmruby.a(mrblib.o)
                0x000000000003f7e4                mrb_init_mrblib
 .text          0x000000000003f814      0x73c /Users/cho45/project/raspberrypi-mruby-bare-metal/mruby/build/arm-eabi-raspberry-pi/lib/libmruby.a(backtrace.o)
                0x000000000003fe98                mrb_print_backtrace
                0x000000000003fedc                mrb_get_backtrace
 .text          0x000000000003ff50       0x28 /Users/cho45/project/raspberrypi-mruby-bare-metal/mruby/build/arm-eabi-raspberry-pi/lib/libmruby.a(compar.o)
                0x000000000003ff50                mrb_init_comparable
 .text          0x000000000003ff78       0x28 /Users/cho45/project/raspberrypi-mruby-bare-metal/mruby/build/arm-eabi-raspberry-pi/lib/libmruby.a(enum.o)
                0x000000000003ff78                mrb_init_enumerable
 .text          0x000000000003ffa0      0x6e8 /Users/cho45/project/raspberrypi-mruby-bare-metal/mruby/build/arm-eabi-raspberry-pi/lib/libmruby.a(etc.o)
                0x00000000000400bc                mrb_data_object_alloc
                0x0000000000040114                mrb_data_check_type
                0x00000000000402c4                mrb_data_check_get_ptr
                0x0000000000040338                mrb_data_get_ptr
                0x0000000000040398                mrb_obj_to_sym
                0x0000000000040584                mrb_obj_id
 .text          0x0000000000040688        0x0 /Users/cho45/arm-cs-tools/arm-none-eabi/lib//libc.a(lib_a-abort.o)
 .text.abort    0x0000000000040688       0x14 /Users/cho45/arm-cs-tools/arm-none-eabi/lib//libc.a(lib_a-abort.o)
                0x0000000000040688                abort
 .text          0x000000000004069c        0x0 /Users/cho45/arm-cs-tools/arm-none-eabi/lib//libc.a(lib_a-abs.o)
 .text.abs      0x000000000004069c        0xc /Users/cho45/arm-cs-tools/arm-none-eabi/lib//libc.a(lib_a-abs.o)
                0x000000000004069c                abs
 .text          0x00000000000406a8        0x0 /Users/cho45/arm-cs-tools/arm-none-eabi/lib//libc.a(lib_a-ctype_.o)
 .text          0x00000000000406a8        0x0 /Users/cho45/arm-cs-tools/arm-none-eabi/lib//libc.a(lib_a-errno.o)
 .text.__errno  0x00000000000406a8       0x10 /Users/cho45/arm-cs-tools/arm-none-eabi/lib//libc.a(lib_a-errno.o)
                0x00000000000406a8                __errno
 .text          0x00000000000406b8        0x0 /Users/cho45/arm-cs-tools/arm-none-eabi/lib//libc.a(lib_a-exit.o)
 .text.exit     0x00000000000406b8       0x34 /Users/cho45/arm-cs-tools/arm-none-eabi/lib//libc.a(lib_a-exit.o)
                0x00000000000406b8                exit
 .text          0x00000000000406ec        0x0 /Users/cho45/arm-cs-tools/arm-none-eabi/lib//libc.a(lib_a-fputs.o)
 .text._fputs_r
                0x00000000000406ec       0x84 /Users/cho45/arm-cs-tools/arm-none-eabi/lib//libc.a(lib_a-fputs.o)
                0x00000000000406ec                _fputs_r
 .text.fputs    0x0000000000040770       0x1c /Users/cho45/arm-cs-tools/arm-none-eabi/lib//libc.a(lib_a-fputs.o)
                0x0000000000040770                fputs
 .text          0x000000000004078c        0x0 /Users/cho45/arm-cs-tools/arm-none-eabi/lib//libc.a(lib_a-fread.o)
 .text._fread_r
                0x000000000004078c      0x100 /Users/cho45/arm-cs-tools/arm-none-eabi/lib//libc.a(lib_a-fread.o)
                0x000000000004078c                _fread_r
 .text.fread    0x000000000004088c       0x38 /Users/cho45/arm-cs-tools/arm-none-eabi/lib//libc.a(lib_a-fread.o)
                0x000000000004088c                fread
 .text          0x00000000000408c4        0x0 /Users/cho45/arm-cs-tools/arm-none-eabi/lib//libc.a(lib_a-fseek.o)
 .text._fseek_r
                0x00000000000408c4      0x414 /Users/cho45/arm-cs-tools/arm-none-eabi/lib//libc.a(lib_a-fseek.o)
                0x00000000000408c4                _fseek_r
 .text.fseek    0x0000000000040cd8       0x2c /Users/cho45/arm-cs-tools/arm-none-eabi/lib//libc.a(lib_a-fseek.o)
                0x0000000000040cd8                fseek
 .text          0x0000000000040d04        0x0 /Users/cho45/arm-cs-tools/arm-none-eabi/lib//libc.a(lib_a-fstatr.o)
 .text._fstat_r
                0x0000000000040d04       0x40 /Users/cho45/arm-cs-tools/arm-none-eabi/lib//libc.a(lib_a-fstatr.o)
                0x0000000000040d04                _fstat_r
 .text          0x0000000000040d44        0x0 /Users/cho45/arm-cs-tools/arm-none-eabi/lib//libc.a(lib_a-ftell.o)
 .text._ftell_r
                0x0000000000040d44       0xc4 /Users/cho45/arm-cs-tools/arm-none-eabi/lib//libc.a(lib_a-ftell.o)
                0x0000000000040d44                _ftell_r
 .text.ftell    0x0000000000040e08       0x14 /Users/cho45/arm-cs-tools/arm-none-eabi/lib//libc.a(lib_a-ftell.o)
                0x0000000000040e08                ftell
 .text          0x0000000000040e1c        0x0 /Users/cho45/arm-cs-tools/arm-none-eabi/lib//libc.a(lib_a-fvwrite.o)
 .text.__sfvwrite_r
                0x0000000000040e1c      0x468 /Users/cho45/arm-cs-tools/arm-none-eabi/lib//libc.a(lib_a-fvwrite.o)
                0x0000000000040e1c                __sfvwrite_r
 .text          0x0000000000041284        0x0 /Users/cho45/arm-cs-tools/arm-none-eabi/lib//libc.a(lib_a-fwrite.o)
 .text._fwrite_r
                0x0000000000041284       0x9c /Users/cho45/arm-cs-tools/arm-none-eabi/lib//libc.a(lib_a-fwrite.o)
                0x0000000000041284                _fwrite_r
 .text.fwrite   0x0000000000041320       0x38 /Users/cho45/arm-cs-tools/arm-none-eabi/lib//libc.a(lib_a-fwrite.o)
                0x0000000000041320                fwrite
 .text          0x0000000000041358        0x0 /Users/cho45/arm-cs-tools/arm-none-eabi/lib//libc.a(lib_a-impure.o)
 .text          0x0000000000041358        0x0 /Users/cho45/arm-cs-tools/arm-none-eabi/lib//libc.a(lib_a-makebuf.o)
 .text.__smakebuf_r
                0x0000000000041358      0x140 /Users/cho45/arm-cs-tools/arm-none-eabi/lib//libc.a(lib_a-makebuf.o)
                0x0000000000041358                __smakebuf_r
 .text          0x0000000000041498        0x0 /Users/cho45/arm-cs-tools/arm-none-eabi/lib//libc.a(lib_a-malloc.o)
 .text.malloc   0x0000000000041498       0x20 /Users/cho45/arm-cs-tools/arm-none-eabi/lib//libc.a(lib_a-malloc.o)
                0x0000000000041498                malloc
 .text.free     0x00000000000414b8       0x20 /Users/cho45/arm-cs-tools/arm-none-eabi/lib//libc.a(lib_a-malloc.o)
                0x00000000000414b8                free
 .text          0x00000000000414d8        0x0 /Users/cho45/arm-cs-tools/arm-none-eabi/lib//libc.a(lib_a-mallocr.o)
 .text._malloc_r
                0x00000000000414d8      0x62c /Users/cho45/arm-cs-tools/arm-none-eabi/lib//libc.a(lib_a-mallocr.o)
                0x00000000000414d8                _malloc_r
 .text          0x0000000000041b04        0x0 /Users/cho45/arm-cs-tools/arm-none-eabi/lib//libc.a(lib_a-memchr.o)
 .text.memchr   0x0000000000041b04       0x34 /Users/cho45/arm-cs-tools/arm-none-eabi/lib//libc.a(lib_a-memchr.o)
                0x0000000000041b04                memchr
 .text          0x0000000000041b38        0x0 /Users/cho45/arm-cs-tools/arm-none-eabi/lib//libc.a(lib_a-memcmp.o)
 .text.memcmp   0x0000000000041b38       0x3c /Users/cho45/arm-cs-tools/arm-none-eabi/lib//libc.a(lib_a-memcmp.o)
                0x0000000000041b38                memcmp
 .text          0x0000000000041b74        0x0 /Users/cho45/arm-cs-tools/arm-none-eabi/lib//libc.a(lib_a-memcpy.o)
 .text.memcpy   0x0000000000041b74       0x28 /Users/cho45/arm-cs-tools/arm-none-eabi/lib//libc.a(lib_a-memcpy.o)
                0x0000000000041b74                memcpy
 .text          0x0000000000041b9c        0x0 /Users/cho45/arm-cs-tools/arm-none-eabi/lib//libc.a(lib_a-memmove.o)
 .text.memmove  0x0000000000041b9c       0x5c /Users/cho45/arm-cs-tools/arm-none-eabi/lib//libc.a(lib_a-memmove.o)
                0x0000000000041b9c                memmove
 .text          0x0000000000041bf8        0x0 /Users/cho45/arm-cs-tools/arm-none-eabi/lib//libc.a(lib_a-memset.o)
 .text.memset   0x0000000000041bf8       0x1c /Users/cho45/arm-cs-tools/arm-none-eabi/lib//libc.a(lib_a-memset.o)
                0x0000000000041bf8                memset
 .text          0x0000000000041c14        0x0 /Users/cho45/arm-cs-tools/arm-none-eabi/lib//libc.a(lib_a-mlock.o)
 .text.__malloc_lock
                0x0000000000041c14        0x4 /Users/cho45/arm-cs-tools/arm-none-eabi/lib//libc.a(lib_a-mlock.o)
                0x0000000000041c14                __malloc_lock
 .text.__malloc_unlock
                0x0000000000041c18        0x4 /Users/cho45/arm-cs-tools/arm-none-eabi/lib//libc.a(lib_a-mlock.o)
                0x0000000000041c18                __malloc_unlock
 .text          0x0000000000041c1c        0x0 /Users/cho45/arm-cs-tools/arm-none-eabi/lib//libc.a(lib_a-printf.o)
 .text._printf_r
                0x0000000000041c1c       0x28 /Users/cho45/arm-cs-tools/arm-none-eabi/lib//libc.a(lib_a-printf.o)
                0x0000000000041c1c                _printf_r
 .text.printf   0x0000000000041c44       0x34 /Users/cho45/arm-cs-tools/arm-none-eabi/lib//libc.a(lib_a-printf.o)
                0x0000000000041c44                printf
 .text          0x0000000000041c78        0x0 /Users/cho45/arm-cs-tools/arm-none-eabi/lib//libc.a(lib_a-realloc.o)
 .text.realloc  0x0000000000041c78       0x28 /Users/cho45/arm-cs-tools/arm-none-eabi/lib//libc.a(lib_a-realloc.o)
                0x0000000000041c78                realloc
 .text          0x0000000000041ca0        0x0 /Users/cho45/arm-cs-tools/arm-none-eabi/lib//libc.a(lib_a-reallocr.o)
 .text._realloc_r
                0x0000000000041ca0      0x454 /Users/cho45/arm-cs-tools/arm-none-eabi/lib//libc.a(lib_a-reallocr.o)
                0x0000000000041ca0                _realloc_r
 .text          0x00000000000420f4        0x0 /Users/cho45/arm-cs-tools/arm-none-eabi/lib//libc.a(lib_a-reent.o)
 .text.cleanup_glue
                0x00000000000420f4       0x2c /Users/cho45/arm-cs-tools/arm-none-eabi/lib//libc.a(lib_a-reent.o)
                0x00000000000420f4                cleanup_glue
 .text._reclaim_reent
                0x0000000000042120       0xf8 /Users/cho45/arm-cs-tools/arm-none-eabi/lib//libc.a(lib_a-reent.o)
                0x0000000000042120                _reclaim_reent
 .text._wrapup_reent
                0x0000000000042218       0x64 /Users/cho45/arm-cs-tools/arm-none-eabi/lib//libc.a(lib_a-reent.o)
                0x0000000000042218                _wrapup_reent
 .text          0x000000000004227c        0x0 /Users/cho45/arm-cs-tools/arm-none-eabi/lib//libc.a(lib_a-refill.o)
 .text.lflush   0x000000000004227c       0x28 /Users/cho45/arm-cs-tools/arm-none-eabi/lib//libc.a(lib_a-refill.o)
 .text.__srefill_r
                0x00000000000422a4      0x170 /Users/cho45/arm-cs-tools/arm-none-eabi/lib//libc.a(lib_a-refill.o)
                0x00000000000422a4                __srefill_r
 .text          0x0000000000042414        0x0 /Users/cho45/arm-cs-tools/arm-none-eabi/lib//libc.a(lib_a-s_fpclassify.o)
 .text.__fpclassifyd
                0x0000000000042414       0x6c /Users/cho45/arm-cs-tools/arm-none-eabi/lib//libc.a(lib_a-s_fpclassify.o)
                0x0000000000042414                __fpclassifyd
 .text          0x0000000000042480        0x0 /Users/cho45/arm-cs-tools/arm-none-eabi/lib//libc.a(lib_a-sbrkr.o)
 .text._sbrk_r  0x0000000000042480       0x3c /Users/cho45/arm-cs-tools/arm-none-eabi/lib//libc.a(lib_a-sbrkr.o)
                0x0000000000042480                _sbrk_r
 .text          0x00000000000424bc       0x2c /Users/cho45/arm-cs-tools/arm-none-eabi/lib//libc.a(lib_a-setjmp.o)
                0x00000000000424bc                setjmp
                0x00000000000424d0                longjmp
 .text          0x00000000000424e8        0x0 /Users/cho45/arm-cs-tools/arm-none-eabi/lib//libc.a(lib_a-signal.o)
 .text._init_signal_r
                0x00000000000424e8       0x5c /Users/cho45/arm-cs-tools/arm-none-eabi/lib//libc.a(lib_a-signal.o)
                0x00000000000424e8                _init_signal_r
 .text._signal_r
                0x0000000000042544       0x54 /Users/cho45/arm-cs-tools/arm-none-eabi/lib//libc.a(lib_a-signal.o)
                0x0000000000042544                _signal_r
 .text._raise_r
                0x0000000000042598       0x98 /Users/cho45/arm-cs-tools/arm-none-eabi/lib//libc.a(lib_a-signal.o)
                0x0000000000042598                _raise_r
 .text.__sigtramp_r
                0x0000000000042630       0x90 /Users/cho45/arm-cs-tools/arm-none-eabi/lib//libc.a(lib_a-signal.o)
                0x0000000000042630                __sigtramp_r
 .text.raise    0x00000000000426c0       0x14 /Users/cho45/arm-cs-tools/arm-none-eabi/lib//libc.a(lib_a-signal.o)
                0x00000000000426c0                raise
 .text.signal   0x00000000000426d4       0x1c /Users/cho45/arm-cs-tools/arm-none-eabi/lib//libc.a(lib_a-signal.o)
                0x00000000000426d4                signal
 .text._init_signal
                0x00000000000426f0       0x10 /Users/cho45/arm-cs-tools/arm-none-eabi/lib//libc.a(lib_a-signal.o)
                0x00000000000426f0                _init_signal
 .text.__sigtramp
                0x0000000000042700       0x14 /Users/cho45/arm-cs-tools/arm-none-eabi/lib//libc.a(lib_a-signal.o)
                0x0000000000042700                __sigtramp
 .text          0x0000000000042714        0x0 /Users/cho45/arm-cs-tools/arm-none-eabi/lib//libc.a(lib_a-signalr.o)
 .text._kill_r  0x0000000000042714       0x40 /Users/cho45/arm-cs-tools/arm-none-eabi/lib//libc.a(lib_a-signalr.o)
                0x0000000000042714                _kill_r
 .text._getpid_r
                0x0000000000042754       0x10 /Users/cho45/arm-cs-tools/arm-none-eabi/lib//libc.a(lib_a-signalr.o)
                0x0000000000042754                _getpid_r
 .text          0x0000000000042764        0x0 /Users/cho45/arm-cs-tools/arm-none-eabi/lib//libc.a(lib_a-stdio.o)
 .text.__sread  0x0000000000042764       0x34 /Users/cho45/arm-cs-tools/arm-none-eabi/lib//libc.a(lib_a-stdio.o)
                0x0000000000042764                __sread
 .text.__seofread
                0x0000000000042798        0x8 /Users/cho45/arm-cs-tools/arm-none-eabi/lib//libc.a(lib_a-stdio.o)
                0x0000000000042798                __seofread
 .text.__swrite
                0x00000000000427a0       0x54 /Users/cho45/arm-cs-tools/arm-none-eabi/lib//libc.a(lib_a-stdio.o)
                0x00000000000427a0                __swrite
 .text.__sseek  0x00000000000427f4       0x34 /Users/cho45/arm-cs-tools/arm-none-eabi/lib//libc.a(lib_a-stdio.o)
                0x00000000000427f4                __sseek
 .text.__sclose
                0x0000000000042828       0x14 /Users/cho45/arm-cs-tools/arm-none-eabi/lib//libc.a(lib_a-stdio.o)
                0x0000000000042828                __sclose
 .text          0x000000000004283c        0x0 /Users/cho45/arm-cs-tools/arm-none-eabi/lib//libc.a(lib_a-strcmp.o)
 .text.strcmp   0x000000000004283c       0x1c /Users/cho45/arm-cs-tools/arm-none-eabi/lib//libc.a(lib_a-strcmp.o)
                0x000000000004283c                strcmp
 .text          0x0000000000042858        0x0 /Users/cho45/arm-cs-tools/arm-none-eabi/lib//libc.a(lib_a-strlen.o)
 .text.strlen   0x0000000000042858       0x1c /Users/cho45/arm-cs-tools/arm-none-eabi/lib//libc.a(lib_a-strlen.o)
                0x0000000000042858                strlen
 .text          0x0000000000042874        0x0 /Users/cho45/arm-cs-tools/arm-none-eabi/lib//libc.a(lib_a-strtod.o)
 .text.match    0x0000000000042874       0x58 /Users/cho45/arm-cs-tools/arm-none-eabi/lib//libc.a(lib_a-strtod.o)
 .text._strtod_r
                0x00000000000428cc     0x1184 /Users/cho45/arm-cs-tools/arm-none-eabi/lib//libc.a(lib_a-strtod.o)
                0x00000000000428cc                _strtod_r
 .text.strtod   0x0000000000043a50       0x1c /Users/cho45/arm-cs-tools/arm-none-eabi/lib//libc.a(lib_a-strtod.o)
                0x0000000000043a50                strtod
 .text.strtof   0x0000000000043a6c       0xf4 /Users/cho45/arm-cs-tools/arm-none-eabi/lib//libc.a(lib_a-strtod.o)
                0x0000000000043a6c                strtof
 .text          0x0000000000043b60        0x0 /Users/cho45/arm-cs-tools/arm-none-eabi/lib//libc.a(lib_a-strtoul.o)
 .text._strtoul_r
                0x0000000000043b60      0x19c /Users/cho45/arm-cs-tools/arm-none-eabi/lib//libc.a(lib_a-strtoul.o)
                0x0000000000043b60                _strtoul_r
 .text.strtoul  0x0000000000043cfc       0x2c /Users/cho45/arm-cs-tools/arm-none-eabi/lib//libc.a(lib_a-strtoul.o)
                0x0000000000043cfc                strtoul
 .text          0x0000000000043d28        0x0 /Users/cho45/arm-cs-tools/arm-none-eabi/lib//libc.a(lib_a-vfprintf.o)
 .text._vfprintf_r
                0x0000000000043d28     0x1a04 /Users/cho45/arm-cs-tools/arm-none-eabi/lib//libc.a(lib_a-vfprintf.o)
                0x0000000000043d28                _vfprintf_r
 .text.vfprintf
                0x000000000004572c       0x2c /Users/cho45/arm-cs-tools/arm-none-eabi/lib//libc.a(lib_a-vfprintf.o)
                0x000000000004572c                vfprintf
 .text          0x0000000000045758        0x0 /Users/cho45/arm-cs-tools/arm-none-eabi/lib//libc.a(lib_a-vsnprintf.o)
 .text._vsnprintf_r
                0x0000000000045758       0x84 /Users/cho45/arm-cs-tools/arm-none-eabi/lib//libc.a(lib_a-vsnprintf.o)
                0x0000000000045758                _vsnprintf_r
 .text.vsnprintf
                0x00000000000457dc       0x38 /Users/cho45/arm-cs-tools/arm-none-eabi/lib//libc.a(lib_a-vsnprintf.o)
                0x00000000000457dc                vsnprintf
 .text          0x0000000000045814        0x0 /Users/cho45/arm-cs-tools/arm-none-eabi/lib//libc.a(lib_a-wbuf.o)
 .text.__swbuf_r
                0x0000000000045814      0x11c /Users/cho45/arm-cs-tools/arm-none-eabi/lib//libc.a(lib_a-wbuf.o)
                0x0000000000045814                __swbuf_r
 .text.__swbuf  0x0000000000045930       0x1c /Users/cho45/arm-cs-tools/arm-none-eabi/lib//libc.a(lib_a-wbuf.o)
                0x0000000000045930                __swbuf
 .text          0x000000000004594c        0x0 /Users/cho45/arm-cs-tools/arm-none-eabi/lib//libc.a(lib_a-writer.o)
 .text._write_r
                0x000000000004594c       0x44 /Users/cho45/arm-cs-tools/arm-none-eabi/lib//libc.a(lib_a-writer.o)
                0x000000000004594c                _write_r
 .text          0x0000000000045990        0x0 /Users/cho45/arm-cs-tools/arm-none-eabi/lib//libc.a(lib_a-wsetup.o)
 .text.__swsetup_r
                0x0000000000045990      0x11c /Users/cho45/arm-cs-tools/arm-none-eabi/lib//libc.a(lib_a-wsetup.o)
                0x0000000000045990                __swsetup_r
 .text          0x0000000000045aac        0x0 /Users/cho45/arm-cs-tools/arm-none-eabi/lib//libc.a(lib_a-__call_atexit.o)
 .text.startup.register_fini
                0x0000000000045aac       0x24 /Users/cho45/arm-cs-tools/arm-none-eabi/lib//libc.a(lib_a-__call_atexit.o)
 .text.__call_exitprocs
                0x0000000000045ad0      0x150 /Users/cho45/arm-cs-tools/arm-none-eabi/lib//libc.a(lib_a-__call_atexit.o)
                0x0000000000045ad0                __call_exitprocs
 .text          0x0000000000045c20        0x0 /Users/cho45/arm-cs-tools/arm-none-eabi/lib//libc.a(lib_a-atexit.o)
 .text.atexit   0x0000000000045c20       0x20 /Users/cho45/arm-cs-tools/arm-none-eabi/lib//libc.a(lib_a-atexit.o)
                0x0000000000045c20                atexit
 .text          0x0000000000045c40        0x0 /Users/cho45/arm-cs-tools/arm-none-eabi/lib//libc.a(lib_a-closer.o)
 .text._close_r
                0x0000000000045c40       0x3c /Users/cho45/arm-cs-tools/arm-none-eabi/lib//libc.a(lib_a-closer.o)
                0x0000000000045c40                _close_r
 .text          0x0000000000045c7c        0x0 /Users/cho45/arm-cs-tools/arm-none-eabi/lib//libc.a(lib_a-dtoa.o)
 .text.quorem   0x0000000000045c7c      0x1b8 /Users/cho45/arm-cs-tools/arm-none-eabi/lib//libc.a(lib_a-dtoa.o)
 .text._dtoa_r  0x0000000000045e34     0x129c /Users/cho45/arm-cs-tools/arm-none-eabi/lib//libc.a(lib_a-dtoa.o)
                0x0000000000045e34                _dtoa_r
 .text          0x00000000000470d0        0x0 /Users/cho45/arm-cs-tools/arm-none-eabi/lib//libc.a(lib_a-fflush.o)
 .text._fflush_r
                0x00000000000470d0      0x208 /Users/cho45/arm-cs-tools/arm-none-eabi/lib//libc.a(lib_a-fflush.o)
                0x00000000000470d0                _fflush_r
 .text.fflush   0x00000000000472d8       0x44 /Users/cho45/arm-cs-tools/arm-none-eabi/lib//libc.a(lib_a-fflush.o)
                0x00000000000472d8                fflush
 .text          0x000000000004731c        0x0 /Users/cho45/arm-cs-tools/arm-none-eabi/lib//libc.a(lib_a-findfp.o)
 .text.__fp_lock
                0x000000000004731c        0x8 /Users/cho45/arm-cs-tools/arm-none-eabi/lib//libc.a(lib_a-findfp.o)
 .text.__fp_unlock
                0x0000000000047324        0x8 /Users/cho45/arm-cs-tools/arm-none-eabi/lib//libc.a(lib_a-findfp.o)
 .text._cleanup_r
                0x000000000004732c       0x18 /Users/cho45/arm-cs-tools/arm-none-eabi/lib//libc.a(lib_a-findfp.o)
                0x000000000004732c                _cleanup_r
 .text.std.isra.0
                0x0000000000047344       0x7c /Users/cho45/arm-cs-tools/arm-none-eabi/lib//libc.a(lib_a-findfp.o)
 .text.__sfmoreglue
                0x00000000000473c0       0x44 /Users/cho45/arm-cs-tools/arm-none-eabi/lib//libc.a(lib_a-findfp.o)
                0x00000000000473c0                __sfmoreglue
 .text._cleanup
                0x0000000000047404       0x10 /Users/cho45/arm-cs-tools/arm-none-eabi/lib//libc.a(lib_a-findfp.o)
                0x0000000000047404                _cleanup
 .text.__sinit  0x0000000000047414       0x78 /Users/cho45/arm-cs-tools/arm-none-eabi/lib//libc.a(lib_a-findfp.o)
                0x0000000000047414                __sinit
 .text.__sfp    0x000000000004748c       0xdc /Users/cho45/arm-cs-tools/arm-none-eabi/lib//libc.a(lib_a-findfp.o)
                0x000000000004748c                __sfp
 .text.__sfp_lock_acquire
                0x0000000000047568        0x4 /Users/cho45/arm-cs-tools/arm-none-eabi/lib//libc.a(lib_a-findfp.o)
                0x0000000000047568                __sfp_lock_acquire
 .text.__sfp_lock_release
                0x000000000004756c        0x4 /Users/cho45/arm-cs-tools/arm-none-eabi/lib//libc.a(lib_a-findfp.o)
                0x000000000004756c                __sfp_lock_release
 .text.__sinit_lock_acquire
                0x0000000000047570        0x4 /Users/cho45/arm-cs-tools/arm-none-eabi/lib//libc.a(lib_a-findfp.o)
                0x0000000000047570                __sinit_lock_acquire
 .text.__sinit_lock_release
                0x0000000000047574        0x4 /Users/cho45/arm-cs-tools/arm-none-eabi/lib//libc.a(lib_a-findfp.o)
                0x0000000000047574                __sinit_lock_release
 .text.__fp_lock_all
                0x0000000000047578       0x24 /Users/cho45/arm-cs-tools/arm-none-eabi/lib//libc.a(lib_a-findfp.o)
                0x0000000000047578                __fp_lock_all
 .text.__fp_unlock_all
                0x000000000004759c       0x24 /Users/cho45/arm-cs-tools/arm-none-eabi/lib//libc.a(lib_a-findfp.o)
                0x000000000004759c                __fp_unlock_all
 .text          0x00000000000475c0        0x0 /Users/cho45/arm-cs-tools/arm-none-eabi/lib//libc.a(lib_a-fini.o)
 .text.__libc_fini_array
                0x00000000000475c0       0x50 /Users/cho45/arm-cs-tools/arm-none-eabi/lib//libc.a(lib_a-fini.o)
                0x00000000000475c0                __libc_fini_array
 .text          0x0000000000047610        0x0 /Users/cho45/arm-cs-tools/arm-none-eabi/lib//libc.a(lib_a-freer.o)
 .text._malloc_trim_r
                0x0000000000047610       0xfc /Users/cho45/arm-cs-tools/arm-none-eabi/lib//libc.a(lib_a-freer.o)
                0x0000000000047610                _malloc_trim_r
 .text._free_r  0x000000000004770c      0x244 /Users/cho45/arm-cs-tools/arm-none-eabi/lib//libc.a(lib_a-freer.o)
                0x000000000004770c                _free_r
 .text          0x0000000000047950        0x0 /Users/cho45/arm-cs-tools/arm-none-eabi/lib//libc.a(lib_a-fwalk.o)
 .text._fwalk   0x0000000000047950       0x78 /Users/cho45/arm-cs-tools/arm-none-eabi/lib//libc.a(lib_a-fwalk.o)
                0x0000000000047950                _fwalk
 .text._fwalk_reent
                0x00000000000479c8       0x7c /Users/cho45/arm-cs-tools/arm-none-eabi/lib//libc.a(lib_a-fwalk.o)
                0x00000000000479c8                _fwalk_reent
 .text          0x0000000000047a44        0x0 /Users/cho45/arm-cs-tools/arm-none-eabi/lib//libc.a(lib_a-gdtoa-gethex.o)
 .text.rshift   0x0000000000047a44       0xb0 /Users/cho45/arm-cs-tools/arm-none-eabi/lib//libc.a(lib_a-gdtoa-gethex.o)
 .text.htinit.constprop.0
                0x0000000000047af4       0x34 /Users/cho45/arm-cs-tools/arm-none-eabi/lib//libc.a(lib_a-gdtoa-gethex.o)
 .text.__hexdig_init
                0x0000000000047b28       0x38 /Users/cho45/arm-cs-tools/arm-none-eabi/lib//libc.a(lib_a-gdtoa-gethex.o)
                0x0000000000047b28                __hexdig_init
 .text.__gethex
                0x0000000000047b60      0x6e8 /Users/cho45/arm-cs-tools/arm-none-eabi/lib//libc.a(lib_a-gdtoa-gethex.o)
                0x0000000000047b60                __gethex
 .text          0x0000000000048248        0x0 /Users/cho45/arm-cs-tools/arm-none-eabi/lib//libc.a(lib_a-gdtoa-hexnan.o)
 .text.L_shift  0x0000000000048248       0x38 /Users/cho45/arm-cs-tools/arm-none-eabi/lib//libc.a(lib_a-gdtoa-hexnan.o)
 .text.__hexnan
                0x0000000000048280      0x1f4 /Users/cho45/arm-cs-tools/arm-none-eabi/lib//libc.a(lib_a-gdtoa-hexnan.o)
                0x0000000000048280                __hexnan
 .text          0x0000000000048474        0x0 /Users/cho45/arm-cs-tools/arm-none-eabi/lib//libc.a(lib_a-isattyr.o)
 .text._isatty_r
                0x0000000000048474       0x3c /Users/cho45/arm-cs-tools/arm-none-eabi/lib//libc.a(lib_a-isattyr.o)
                0x0000000000048474                _isatty_r
 .text          0x00000000000484b0        0x0 /Users/cho45/arm-cs-tools/arm-none-eabi/lib//libc.a(lib_a-locale.o)
 .text._setlocale_r
                0x00000000000484b0       0x6c /Users/cho45/arm-cs-tools/arm-none-eabi/lib//libc.a(lib_a-locale.o)
                0x00000000000484b0                _setlocale_r
 .text.__locale_charset
                0x000000000004851c        0xc /Users/cho45/arm-cs-tools/arm-none-eabi/lib//libc.a(lib_a-locale.o)
                0x000000000004851c                __locale_charset
 .text.__locale_mb_cur_max
                0x0000000000048528       0x10 /Users/cho45/arm-cs-tools/arm-none-eabi/lib//libc.a(lib_a-locale.o)
                0x0000000000048528                __locale_mb_cur_max
 .text.__locale_msgcharset
                0x0000000000048538        0xc /Users/cho45/arm-cs-tools/arm-none-eabi/lib//libc.a(lib_a-locale.o)
                0x0000000000048538                __locale_msgcharset
 .text.__locale_cjk_lang
                0x0000000000048544        0x8 /Users/cho45/arm-cs-tools/arm-none-eabi/lib//libc.a(lib_a-locale.o)
                0x0000000000048544                __locale_cjk_lang
 .text._localeconv_r
                0x000000000004854c        0xc /Users/cho45/arm-cs-tools/arm-none-eabi/lib//libc.a(lib_a-locale.o)
                0x000000000004854c                _localeconv_r
 .text.setlocale
                0x0000000000048558       0x1c /Users/cho45/arm-cs-tools/arm-none-eabi/lib//libc.a(lib_a-locale.o)
                0x0000000000048558                setlocale
 .text.localeconv
                0x0000000000048574        0xc /Users/cho45/arm-cs-tools/arm-none-eabi/lib//libc.a(lib_a-locale.o)
                0x0000000000048574                localeconv
 .text          0x0000000000048580        0x0 /Users/cho45/arm-cs-tools/arm-none-eabi/lib//libc.a(lib_a-lseekr.o)
 .text._lseek_r
                0x0000000000048580       0x44 /Users/cho45/arm-cs-tools/arm-none-eabi/lib//libc.a(lib_a-lseekr.o)
                0x0000000000048580                _lseek_r
 .text          0x00000000000485c4        0x0 /Users/cho45/arm-cs-tools/arm-none-eabi/lib//libc.a(lib_a-mprec.o)
 .text._Balloc  0x00000000000485c4       0x8c /Users/cho45/arm-cs-tools/arm-none-eabi/lib//libc.a(lib_a-mprec.o)
                0x00000000000485c4                _Balloc
 .text._Bfree   0x0000000000048650       0x1c /Users/cho45/arm-cs-tools/arm-none-eabi/lib//libc.a(lib_a-mprec.o)
                0x0000000000048650                _Bfree
 .text.__multadd
                0x000000000004866c       0xbc /Users/cho45/arm-cs-tools/arm-none-eabi/lib//libc.a(lib_a-mprec.o)
                0x000000000004866c                __multadd
 .text.__s2b    0x0000000000048728       0xd8 /Users/cho45/arm-cs-tools/arm-none-eabi/lib//libc.a(lib_a-mprec.o)
                0x0000000000048728                __s2b
 .text.__hi0bits
                0x0000000000048800       0x58 /Users/cho45/arm-cs-tools/arm-none-eabi/lib//libc.a(lib_a-mprec.o)
                0x0000000000048800                __hi0bits
 .text.__lo0bits
                0x0000000000048858       0x94 /Users/cho45/arm-cs-tools/arm-none-eabi/lib//libc.a(lib_a-mprec.o)
                0x0000000000048858                __lo0bits
 .text.__i2b    0x00000000000488ec       0x24 /Users/cho45/arm-cs-tools/arm-none-eabi/lib//libc.a(lib_a-mprec.o)
                0x00000000000488ec                __i2b
 .text.__multiply
                0x0000000000048910      0x1b0 /Users/cho45/arm-cs-tools/arm-none-eabi/lib//libc.a(lib_a-mprec.o)
                0x0000000000048910                __multiply
 .text.__pow5mult
                0x0000000000048ac0       0xdc /Users/cho45/arm-cs-tools/arm-none-eabi/lib//libc.a(lib_a-mprec.o)
                0x0000000000048ac0                __pow5mult
 .text.__lshift
                0x0000000000048b9c       0xf0 /Users/cho45/arm-cs-tools/arm-none-eabi/lib//libc.a(lib_a-mprec.o)
                0x0000000000048b9c                __lshift
 .text.__mcmp   0x0000000000048c8c       0x68 /Users/cho45/arm-cs-tools/arm-none-eabi/lib//libc.a(lib_a-mprec.o)
                0x0000000000048c8c                __mcmp
 .text.__mdiff  0x0000000000048cf4      0x128 /Users/cho45/arm-cs-tools/arm-none-eabi/lib//libc.a(lib_a-mprec.o)
                0x0000000000048cf4                __mdiff
 .text.__ulp    0x0000000000048e1c       0x5c /Users/cho45/arm-cs-tools/arm-none-eabi/lib//libc.a(lib_a-mprec.o)
                0x0000000000048e1c                __ulp
 .text.__b2d    0x0000000000048e78       0xc8 /Users/cho45/arm-cs-tools/arm-none-eabi/lib//libc.a(lib_a-mprec.o)
                0x0000000000048e78                __b2d
 .text.__d2b    0x0000000000048f40       0xfc /Users/cho45/arm-cs-tools/arm-none-eabi/lib//libc.a(lib_a-mprec.o)
                0x0000000000048f40                __d2b
 .text.__ratio  0x000000000004903c       0x70 /Users/cho45/arm-cs-tools/arm-none-eabi/lib//libc.a(lib_a-mprec.o)
                0x000000000004903c                __ratio
 .text._mprec_log10
                0x00000000000490ac       0x4c /Users/cho45/arm-cs-tools/arm-none-eabi/lib//libc.a(lib_a-mprec.o)
                0x00000000000490ac                _mprec_log10
 .text.__copybits
                0x00000000000490f8       0x50 /Users/cho45/arm-cs-tools/arm-none-eabi/lib//libc.a(lib_a-mprec.o)
                0x00000000000490f8                __copybits
 .text.__any_on
                0x0000000000049148       0x7c /Users/cho45/arm-cs-tools/arm-none-eabi/lib//libc.a(lib_a-mprec.o)
                0x0000000000049148                __any_on
 .text          0x00000000000491c4        0x0 /Users/cho45/arm-cs-tools/arm-none-eabi/lib//libc.a(lib_a-readr.o)
 .text._read_r  0x00000000000491c4       0x44 /Users/cho45/arm-cs-tools/arm-none-eabi/lib//libc.a(lib_a-readr.o)
                0x00000000000491c4                _read_r
 .text          0x0000000000049208        0x0 /Users/cho45/arm-cs-tools/arm-none-eabi/lib//libc.a(lib_a-strncmp.o)
 .text.strncmp  0x0000000000049208       0x68 /Users/cho45/arm-cs-tools/arm-none-eabi/lib//libc.a(lib_a-strncmp.o)
                0x0000000000049208                strncmp
 .text          0x0000000000049270        0x0 /Users/cho45/arm-cs-tools/arm-none-eabi/lib//libc.a(lib_a-svfprintf.o)
 .text._svfprintf_r
                0x0000000000049270     0x18d4 /Users/cho45/arm-cs-tools/arm-none-eabi/lib//libc.a(lib_a-svfprintf.o)
                0x0000000000049270                _svfprintf_r
 .text          0x000000000004ab44        0x0 /Users/cho45/arm-cs-tools/arm-none-eabi/lib//libc.a(lib_a-vfiprintf.o)
 .text.__sprint_r
                0x000000000004ab44       0xb0 /Users/cho45/arm-cs-tools/arm-none-eabi/lib//libc.a(lib_a-vfiprintf.o)
                0x000000000004ab44                __sprint_r
 .text._vfiprintf_r
                0x000000000004abf4      0xd94 /Users/cho45/arm-cs-tools/arm-none-eabi/lib//libc.a(lib_a-vfiprintf.o)
                0x000000000004abf4                _vfiprintf_r
 .text.vfiprintf
                0x000000000004b988       0x2c /Users/cho45/arm-cs-tools/arm-none-eabi/lib//libc.a(lib_a-vfiprintf.o)
                0x000000000004b988                vfiprintf
 .text          0x000000000004b9b4        0x0 /Users/cho45/arm-cs-tools/arm-none-eabi/lib//libc.a(lib_a-__atexit.o)
 .text.__register_exitproc
                0x000000000004b9b4       0xdc /Users/cho45/arm-cs-tools/arm-none-eabi/lib//libc.a(lib_a-__atexit.o)
                0x000000000004b9b4                __register_exitproc
 .text          0x000000000004ba90        0x0 /Users/cho45/arm-cs-tools/arm-none-eabi/lib//libc.a(lib_a-callocr.o)
 .text._calloc_r
                0x000000000004ba90       0x90 /Users/cho45/arm-cs-tools/arm-none-eabi/lib//libc.a(lib_a-callocr.o)
                0x000000000004ba90                _calloc_r
 .text          0x000000000004bb20        0x0 /Users/cho45/arm-cs-tools/arm-none-eabi/lib//libc.a(lib_a-fclose.o)
 .text._fclose_r
                0x000000000004bb20       0xe0 /Users/cho45/arm-cs-tools/arm-none-eabi/lib//libc.a(lib_a-fclose.o)
                0x000000000004bb20                _fclose_r
 .text.fclose   0x000000000004bc00       0x14 /Users/cho45/arm-cs-tools/arm-none-eabi/lib//libc.a(lib_a-fclose.o)
                0x000000000004bc00                fclose
 .text          0x000000000004bc14        0x0 /Users/cho45/arm-cs-tools/arm-none-eabi/lib//libc.a(lib_a-fputwc.o)
 .text._fputwc_r
                0x000000000004bc14      0x138 /Users/cho45/arm-cs-tools/arm-none-eabi/lib//libc.a(lib_a-fputwc.o)
                0x000000000004bc14                _fputwc_r
 .text.fputwc   0x000000000004bd4c       0x44 /Users/cho45/arm-cs-tools/arm-none-eabi/lib//libc.a(lib_a-fputwc.o)
                0x000000000004bd4c                fputwc
 .text          0x000000000004bd90        0x0 /Users/cho45/arm-cs-tools/arm-none-eabi/lib//libc.a(lib_a-svfiprintf.o)
 .text.__ssprint_r
                0x000000000004bd90      0x188 /Users/cho45/arm-cs-tools/arm-none-eabi/lib//libc.a(lib_a-svfiprintf.o)
                0x000000000004bd90                __ssprint_r
 .text._svfiprintf_r
                0x000000000004bf18      0xca4 /Users/cho45/arm-cs-tools/arm-none-eabi/lib//libc.a(lib_a-svfiprintf.o)
                0x000000000004bf18                _svfiprintf_r
 .text          0x000000000004cbbc        0x0 /Users/cho45/arm-cs-tools/arm-none-eabi/lib//libc.a(lib_a-wcrtomb.o)
 .text._wcrtomb_r
                0x000000000004cbbc       0x84 /Users/cho45/arm-cs-tools/arm-none-eabi/lib//libc.a(lib_a-wcrtomb.o)
                0x000000000004cbbc                _wcrtomb_r
 .text.wcrtomb  0x000000000004cc40       0x2c /Users/cho45/arm-cs-tools/arm-none-eabi/lib//libc.a(lib_a-wcrtomb.o)
                0x000000000004cc40                wcrtomb
 .text          0x000000000004cc6c        0x0 /Users/cho45/arm-cs-tools/arm-none-eabi/lib//libc.a(lib_a-wctomb_r.o)
 .text.__ascii_wctomb
                0x000000000004cc6c       0x2c /Users/cho45/arm-cs-tools/arm-none-eabi/lib//libc.a(lib_a-wctomb_r.o)
                0x000000000004cc6c                __ascii_wctomb
 .text._wctomb_r
                0x000000000004cc98       0x48 /Users/cho45/arm-cs-tools/arm-none-eabi/lib//libc.a(lib_a-wctomb_r.o)
                0x000000000004cc98                _wctomb_r
 .text          0x000000000004cce0        0x0 /Users/cho45/arm-cs-tools/arm-none-eabi/lib//libm.a(lib_a-s_ceil.o)
 .text.ceil     0x000000000004cce0      0x180 /Users/cho45/arm-cs-tools/arm-none-eabi/lib//libm.a(lib_a-s_ceil.o)
                0x000000000004cce0                ceil
 .text          0x000000000004ce60        0x0 /Users/cho45/arm-cs-tools/arm-none-eabi/lib//libm.a(lib_a-s_floor.o)
 .text.floor    0x000000000004ce60      0x184 /Users/cho45/arm-cs-tools/arm-none-eabi/lib//libm.a(lib_a-s_floor.o)
                0x000000000004ce60                floor
 .text          0x000000000004cfe4        0x0 /Users/cho45/arm-cs-tools/arm-none-eabi/lib//libm.a(lib_a-w_fmod.o)
 .text.fmod     0x000000000004cfe4      0x130 /Users/cho45/arm-cs-tools/arm-none-eabi/lib//libm.a(lib_a-w_fmod.o)
                0x000000000004cfe4                fmod
 .text          0x000000000004d114        0x0 /Users/cho45/arm-cs-tools/arm-none-eabi/lib//libm.a(lib_a-w_log10.o)
 .text.log10    0x000000000004d114      0x170 /Users/cho45/arm-cs-tools/arm-none-eabi/lib//libm.a(lib_a-w_log10.o)
                0x000000000004d114                log10
 .text          0x000000000004d284        0x0 /Users/cho45/arm-cs-tools/arm-none-eabi/lib//libm.a(lib_a-w_pow.o)
 .text.pow      0x000000000004d284      0x4bc /Users/cho45/arm-cs-tools/arm-none-eabi/lib//libm.a(lib_a-w_pow.o)
                0x000000000004d284                pow
 .text          0x000000000004d740        0x0 /Users/cho45/arm-cs-tools/arm-none-eabi/lib//libm.a(lib_a-e_fmod.o)
 .text.__ieee754_fmod
                0x000000000004d740      0x310 /Users/cho45/arm-cs-tools/arm-none-eabi/lib//libm.a(lib_a-e_fmod.o)
                0x000000000004d740                __ieee754_fmod
 .text          0x000000000004da50        0x0 /Users/cho45/arm-cs-tools/arm-none-eabi/lib//libm.a(lib_a-e_log10.o)
 .text.__ieee754_log10
                0x000000000004da50      0x17c /Users/cho45/arm-cs-tools/arm-none-eabi/lib//libm.a(lib_a-e_log10.o)
                0x000000000004da50                __ieee754_log10
 .text          0x000000000004dbcc        0x0 /Users/cho45/arm-cs-tools/arm-none-eabi/lib//libm.a(lib_a-e_pow.o)
 .text.__ieee754_pow
                0x000000000004dbcc     0x103c /Users/cho45/arm-cs-tools/arm-none-eabi/lib//libm.a(lib_a-e_pow.o)
                0x000000000004dbcc                __ieee754_pow
 .text          0x000000000004ec08        0x0 /Users/cho45/arm-cs-tools/arm-none-eabi/lib//libm.a(lib_a-e_sqrt.o)
 .text.__ieee754_sqrt
                0x000000000004ec08      0x20c /Users/cho45/arm-cs-tools/arm-none-eabi/lib//libm.a(lib_a-e_sqrt.o)
                0x000000000004ec08                __ieee754_sqrt
 .text          0x000000000004ee14        0x0 /Users/cho45/arm-cs-tools/arm-none-eabi/lib//libm.a(lib_a-s_fabs.o)
 .text.fabs     0x000000000004ee14        0x8 /Users/cho45/arm-cs-tools/arm-none-eabi/lib//libm.a(lib_a-s_fabs.o)
                0x000000000004ee14                fabs
 .text          0x000000000004ee1c        0x0 /Users/cho45/arm-cs-tools/arm-none-eabi/lib//libm.a(lib_a-s_finite.o)
 .text.finite   0x000000000004ee1c       0x10 /Users/cho45/arm-cs-tools/arm-none-eabi/lib//libm.a(lib_a-s_finite.o)
                0x000000000004ee1c                finite
 .text          0x000000000004ee2c        0x0 /Users/cho45/arm-cs-tools/arm-none-eabi/lib//libm.a(lib_a-s_lib_ver.o)
 .text          0x000000000004ee2c        0x0 /Users/cho45/arm-cs-tools/arm-none-eabi/lib//libm.a(lib_a-s_matherr.o)
 .text.matherr  0x000000000004ee2c        0x8 /Users/cho45/arm-cs-tools/arm-none-eabi/lib//libm.a(lib_a-s_matherr.o)
                0x000000000004ee2c                matherr
 .text          0x000000000004ee34        0x0 /Users/cho45/arm-cs-tools/arm-none-eabi/lib//libm.a(lib_a-s_nan.o)
 .text.nan      0x000000000004ee34       0x10 /Users/cho45/arm-cs-tools/arm-none-eabi/lib//libm.a(lib_a-s_nan.o)
                0x000000000004ee34                nan
 .text          0x000000000004ee44        0x0 /Users/cho45/arm-cs-tools/arm-none-eabi/lib//libm.a(lib_a-s_rint.o)
 .text.rint     0x000000000004ee44      0x18c /Users/cho45/arm-cs-tools/arm-none-eabi/lib//libm.a(lib_a-s_rint.o)
                0x000000000004ee44                rint
 .text          0x000000000004efd0        0x0 /Users/cho45/arm-cs-tools/arm-none-eabi/lib//libm.a(lib_a-s_scalbn.o)
 .text.scalbn   0x000000000004efd0      0x174 /Users/cho45/arm-cs-tools/arm-none-eabi/lib//libm.a(lib_a-s_scalbn.o)
                0x000000000004efd0                scalbn
 .text          0x000000000004f144        0x0 /Users/cho45/arm-cs-tools/arm-none-eabi/lib//libm.a(lib_a-e_log.o)
 .text.__ieee754_log
                0x000000000004f144      0x5bc /Users/cho45/arm-cs-tools/arm-none-eabi/lib//libm.a(lib_a-e_log.o)
                0x000000000004f144                __ieee754_log
 .text          0x000000000004f700        0x0 /Users/cho45/arm-cs-tools/arm-none-eabi/lib//libm.a(lib_a-s_copysign.o)
 .text.copysign
                0x000000000004f700       0x20 /Users/cho45/arm-cs-tools/arm-none-eabi/lib//libm.a(lib_a-s_copysign.o)
                0x000000000004f700                copysign
 .text          0x000000000004f720      0x114 /Users/cho45/arm-cs-tools/lib/gcc/arm-none-eabi/4.7.3/libgcc.a(_udivsi3.o)
                0x000000000004f720                __udivsi3
                0x000000000004f720                __aeabi_uidiv
                0x000000000004f814                __aeabi_uidivmod
 .text          0x000000000004f834      0x148 /Users/cho45/arm-cs-tools/lib/gcc/arm-none-eabi/4.7.3/libgcc.a(_divsi3.o)
                0x000000000004f834                __aeabi_idiv
                0x000000000004f834                __divsi3
                0x000000000004f95c                __aeabi_idivmod
 .text          0x000000000004f97c        0x4 /Users/cho45/arm-cs-tools/lib/gcc/arm-none-eabi/4.7.3/libgcc.a(_dvmd_tls.o)
                0x000000000004f97c                __aeabi_ldiv0
                0x000000000004f97c                __aeabi_idiv0
 .text          0x000000000004f980      0x41c /Users/cho45/arm-cs-tools/lib/gcc/arm-none-eabi/4.7.3/libgcc.a(_arm_addsubdf3.o)
                0x000000000004f980                __aeabi_drsub
                0x000000000004f988                __subdf3
                0x000000000004f988                __aeabi_dsub
                0x000000000004f98c                __aeabi_dadd
                0x000000000004f98c                __adddf3
                0x000000000004fc9c                __aeabi_ui2d
                0x000000000004fc9c                __floatunsidf
                0x000000000004fcc0                __floatsidf
                0x000000000004fcc0                __aeabi_i2d
                0x000000000004fce8                __extendsfdf2
                0x000000000004fce8                __aeabi_f2d
                0x000000000004fd28                __aeabi_ul2d
                0x000000000004fd28                __floatundidf
                0x000000000004fd3c                __aeabi_l2d
                0x000000000004fd3c                __floatdidf
 .text          0x000000000004fd9c      0x49c /Users/cho45/arm-cs-tools/lib/gcc/arm-none-eabi/4.7.3/libgcc.a(_arm_muldivdf3.o)
                0x000000000004fd9c                __aeabi_dmul
                0x000000000004fd9c                __muldf3
                0x000000000005002c                __aeabi_ddiv
                0x000000000005002c                __divdf3
 .text          0x0000000000050238      0x144 /Users/cho45/arm-cs-tools/lib/gcc/arm-none-eabi/4.7.3/libgcc.a(_arm_cmpdf2.o)
                0x0000000000050238                __gtdf2
                0x0000000000050238                __gedf2
                0x0000000000050240                __ltdf2
                0x0000000000050240                __ledf2
                0x0000000000050248                __eqdf2
                0x0000000000050248                __nedf2
                0x0000000000050248                __cmpdf2
                0x00000000000502d0                __aeabi_cdrcmple
                0x00000000000502ec                __aeabi_cdcmple
                0x00000000000502ec                __aeabi_cdcmpeq
                0x0000000000050304                __aeabi_dcmpeq
                0x000000000005031c                __aeabi_dcmplt
                0x0000000000050334                __aeabi_dcmple
                0x000000000005034c                __aeabi_dcmpge
                0x0000000000050364                __aeabi_dcmpgt
 .text          0x000000000005037c       0x5c /Users/cho45/arm-cs-tools/lib/gcc/arm-none-eabi/4.7.3/libgcc.a(_arm_fixdfsi.o)
                0x000000000005037c                __fixdfsi
                0x000000000005037c                __aeabi_d2iz
 .text          0x00000000000503d8       0x54 /Users/cho45/arm-cs-tools/lib/gcc/arm-none-eabi/4.7.3/libgcc.a(_arm_fixunsdfsi.o)
                0x00000000000503d8                __fixunsdfsi
                0x00000000000503d8                __aeabi_d2uiz
 .text          0x000000000005042c       0xa0 /Users/cho45/arm-cs-tools/lib/gcc/arm-none-eabi/4.7.3/libgcc.a(_arm_truncdfsf2.o)
                0x000000000005042c                __aeabi_d2f
                0x000000000005042c                __truncdfsf2
 .text          0x00000000000504cc      0x114 /Users/cho45/arm-cs-tools/lib/gcc/arm-none-eabi/4.7.3/libgcc.a(_arm_cmpsf2.o)
                0x00000000000504cc                __gesf2
                0x00000000000504cc                __gtsf2
                0x00000000000504d4                __ltsf2
                0x00000000000504d4                __lesf2
                0x00000000000504dc                __nesf2
                0x00000000000504dc                __eqsf2
                0x00000000000504dc                __cmpsf2
                0x0000000000050540                __aeabi_cfrcmple
                0x0000000000050550                __aeabi_cfcmpeq
                0x0000000000050550                __aeabi_cfcmple
                0x0000000000050568                __aeabi_fcmpeq
                0x0000000000050580                __aeabi_fcmplt
                0x0000000000050598                __aeabi_fcmple
                0x00000000000505b0                __aeabi_fcmpge
                0x00000000000505c8                __aeabi_fcmpgt
 .text          0x00000000000505e0       0x3c /Users/cho45/arm-cs-tools/lib/gcc/arm-none-eabi/4.7.3/libgcc.a(_aeabi_uldivmod.o)
                0x00000000000505e0                __aeabi_uldivmod
 .text          0x000000000005061c       0x84 /Users/cho45/arm-cs-tools/lib/gcc/arm-none-eabi/4.7.3/libgcc.a(bpabi.o)
                0x000000000005061c                __gnu_ldivmod_helper
                0x0000000000050660                __gnu_uldivmod_helper
 .text          0x00000000000506a0      0x4f0 /Users/cho45/arm-cs-tools/lib/gcc/arm-none-eabi/4.7.3/libgcc.a(_divdi3.o)
                0x00000000000506a0                __divdi3
 .text          0x0000000000050b90      0x488 /Users/cho45/arm-cs-tools/lib/gcc/arm-none-eabi/4.7.3/libgcc.a(_udivdi3.o)
                0x0000000000050b90                __udivdi3
 .text          0x0000000000051018       0x48 /Users/cho45/arm-cs-tools/lib/gcc/arm-none-eabi/4.7.3/libgcc.a(_clzsi2.o)
                0x0000000000051018                __clzsi2
 *(.rodata)
 .rodata        0x0000000000051060      0x1cc main.o
                0x0000000000051078                code
 .rodata        0x000000000005122c       0x64 /Users/cho45/project/raspberrypi-mruby-bare-metal/mruby/build/arm-eabi-raspberry-pi/lib/libmruby.a(load.o)
 .rodata        0x0000000000051290       0xe0 /Users/cho45/project/raspberrypi-mruby-bare-metal/mruby/build/arm-eabi-raspberry-pi/lib/libmruby.a(proc.o)
 .rodata        0x0000000000051370      0x134 /Users/cho45/project/raspberrypi-mruby-bare-metal/mruby/build/arm-eabi-raspberry-pi/lib/libmruby.a(state.o)
 .rodata        0x00000000000514a4      0x460 /Users/cho45/project/raspberrypi-mruby-bare-metal/mruby/build/arm-eabi-raspberry-pi/lib/libmruby.a(string.o)
                0x00000000000514a4                mrb_digitmap
 .rodata        0x0000000000051904       0x78 /Users/cho45/project/raspberrypi-mruby-bare-metal/mruby/build/arm-eabi-raspberry-pi/lib/libmruby.a(symbol.o)
 .rodata        0x000000000005197c       0xd8 /Users/cho45/project/raspberrypi-mruby-bare-metal/mruby/build/arm-eabi-raspberry-pi/lib/libmruby.a(variable.o)
 .rodata        0x0000000000051a54      0x1e0 /Users/cho45/project/raspberrypi-mruby-bare-metal/mruby/build/arm-eabi-raspberry-pi/lib/libmruby.a(vm.o)
 .rodata        0x0000000000051c34      0x204 /Users/cho45/project/raspberrypi-mruby-bare-metal/mruby/build/arm-eabi-raspberry-pi/lib/libmruby.a(array.o)
 .rodata        0x0000000000051e38      0x728 /Users/cho45/project/raspberrypi-mruby-bare-metal/mruby/build/arm-eabi-raspberry-pi/lib/libmruby.a(class.o)
 .rodata        0x0000000000052560        0xc /Users/cho45/project/raspberrypi-mruby-bare-metal/mruby/build/arm-eabi-raspberry-pi/lib/libmruby.a(debug.o)
 .rodata        0x000000000005256c      0x1a4 /Users/cho45/project/raspberrypi-mruby-bare-metal/mruby/build/arm-eabi-raspberry-pi/lib/libmruby.a(error.o)
 .rodata        0x0000000000052710       0xd4 /Users/cho45/project/raspberrypi-mruby-bare-metal/mruby/build/arm-eabi-raspberry-pi/lib/libmruby.a(gc.o)
 .rodata        0x00000000000527e4      0x1a0 /Users/cho45/project/raspberrypi-mruby-bare-metal/mruby/build/arm-eabi-raspberry-pi/lib/libmruby.a(hash.o)
 .rodata        0x0000000000052984      0x3d0 /Users/cho45/project/raspberrypi-mruby-bare-metal/mruby/build/arm-eabi-raspberry-pi/lib/libmruby.a(kernel.o)
 .rodata        0x0000000000052d54      0x1c8 /Users/cho45/project/raspberrypi-mruby-bare-metal/mruby/build/arm-eabi-raspberry-pi/lib/libmruby.a(numeric.o)
 .rodata        0x0000000000052f1c      0x2f4 /Users/cho45/project/raspberrypi-mruby-bare-metal/mruby/build/arm-eabi-raspberry-pi/lib/libmruby.a(object.o)
 .rodata        0x0000000000053210       0x30 /Users/cho45/project/raspberrypi-mruby-bare-metal/mruby/build/arm-eabi-raspberry-pi/lib/libmruby.a(print.o)
 .rodata        0x0000000000053240       0xf8 /Users/cho45/project/raspberrypi-mruby-bare-metal/mruby/build/arm-eabi-raspberry-pi/lib/libmruby.a(range.o)
 .rodata        0x0000000000053338       0xd4 /Users/cho45/project/raspberrypi-mruby-bare-metal/mruby/build/arm-eabi-raspberry-pi/lib/libmruby.a(version.o)
 .rodata        0x000000000005340c     0x4104 /Users/cho45/project/raspberrypi-mruby-bare-metal/mruby/build/arm-eabi-raspberry-pi/lib/libmruby.a(mrblib.o)
                0x000000000005340c                mrblib_irep
 .rodata        0x0000000000057510       0x74 /Users/cho45/project/raspberrypi-mruby-bare-metal/mruby/build/arm-eabi-raspberry-pi/lib/libmruby.a(backtrace.o)
 .rodata        0x0000000000057584        0xc /Users/cho45/project/raspberrypi-mruby-bare-metal/mruby/build/arm-eabi-raspberry-pi/lib/libmruby.a(compar.o)
 .rodata        0x0000000000057590        0xc /Users/cho45/project/raspberrypi-mruby-bare-metal/mruby/build/arm-eabi-raspberry-pi/lib/libmruby.a(enum.o)
 .rodata        0x000000000005759c       0x68 /Users/cho45/project/raspberrypi-mruby-bare-metal/mruby/build/arm-eabi-raspberry-pi/lib/libmruby.a(etc.o)
 *(.rodata.*)
 .rodata._ctype_
                0x0000000000057604      0x101 /Users/cho45/arm-cs-tools/arm-none-eabi/lib//libc.a(lib_a-ctype_.o)
                0x0000000000057604                _ctype_
 .rodata.str1.1
                0x0000000000057705        0x2 /Users/cho45/arm-cs-tools/arm-none-eabi/lib//libc.a(lib_a-impure.o)
 *fill*         0x0000000000057707        0x1 
 .rodata._global_impure_ptr
                0x0000000000057708        0x4 /Users/cho45/arm-cs-tools/arm-none-eabi/lib//libc.a(lib_a-impure.o)
                0x0000000000057708                _global_impure_ptr
 .rodata.str1.1
                0x0000000000000000        0x2 /Users/cho45/arm-cs-tools/arm-none-eabi/lib//libc.a(lib_a-strtod.o)
                                          0xc (size before relaxing)
 *fill*         0x000000000005770c        0x4 
 .rodata.tinytens
                0x0000000000057710       0x28 /Users/cho45/arm-cs-tools/arm-none-eabi/lib//libc.a(lib_a-strtod.o)
 .rodata.blanks.6742
                0x0000000000057738       0x10 /Users/cho45/arm-cs-tools/arm-none-eabi/lib//libc.a(lib_a-vfprintf.o)
 .rodata.str1.1
                0x0000000000057748       0x32 /Users/cho45/arm-cs-tools/arm-none-eabi/lib//libc.a(lib_a-vfprintf.o)
                                         0x34 (size before relaxing)
 .rodata.zeroes.6743
                0x000000000005777a       0x10 /Users/cho45/arm-cs-tools/arm-none-eabi/lib//libc.a(lib_a-vfprintf.o)
 .rodata.str1.1
                0x000000000005778a        0xd /Users/cho45/arm-cs-tools/arm-none-eabi/lib//libc.a(lib_a-dtoa.o)
                                          0xf (size before relaxing)
 .rodata.str1.1
                0x0000000000057797        0xb /Users/cho45/arm-cs-tools/arm-none-eabi/lib//libc.a(lib_a-gdtoa-gethex.o)
                                         0x19 (size before relaxing)
 .rodata.str1.1
                0x00000000000577a2        0x8 /Users/cho45/arm-cs-tools/arm-none-eabi/lib//libc.a(lib_a-locale.o)
                                          0xb (size before relaxing)
 *fill*         0x00000000000577aa        0x6 
 .rodata.__mprec_tens
                0x00000000000577b0       0xc8 /Users/cho45/arm-cs-tools/arm-none-eabi/lib//libc.a(lib_a-mprec.o)
                0x00000000000577b0                __mprec_tens
 .rodata.__mprec_bigtens
                0x0000000000057878       0x28 /Users/cho45/arm-cs-tools/arm-none-eabi/lib//libc.a(lib_a-mprec.o)
                0x0000000000057878                __mprec_bigtens
 .rodata.p05.5249
                0x00000000000578a0        0xc /Users/cho45/arm-cs-tools/arm-none-eabi/lib//libc.a(lib_a-mprec.o)
 *fill*         0x00000000000578ac        0x4 
 .rodata.__mprec_tinytens
                0x00000000000578b0       0x28 /Users/cho45/arm-cs-tools/arm-none-eabi/lib//libc.a(lib_a-mprec.o)
                0x00000000000578b0                __mprec_tinytens
 .rodata.blanks.6727
                0x00000000000578d8       0x10 /Users/cho45/arm-cs-tools/arm-none-eabi/lib//libc.a(lib_a-svfprintf.o)
 .rodata.str1.1
                0x0000000000000000       0x34 /Users/cho45/arm-cs-tools/arm-none-eabi/lib//libc.a(lib_a-svfprintf.o)
 .rodata.zeroes.6728
                0x00000000000578e8       0x10 /Users/cho45/arm-cs-tools/arm-none-eabi/lib//libc.a(lib_a-svfprintf.o)
 .rodata.blanks.6685
                0x00000000000578f8       0x10 /Users/cho45/arm-cs-tools/arm-none-eabi/lib//libc.a(lib_a-vfiprintf.o)
 .rodata.str1.1
                0x0000000000000000       0x22 /Users/cho45/arm-cs-tools/arm-none-eabi/lib//libc.a(lib_a-vfiprintf.o)
 .rodata.zeroes.6686
                0x0000000000057908       0x10 /Users/cho45/arm-cs-tools/arm-none-eabi/lib//libc.a(lib_a-vfiprintf.o)
 .rodata.blanks.6671
                0x0000000000057918       0x10 /Users/cho45/arm-cs-tools/arm-none-eabi/lib//libc.a(lib_a-svfiprintf.o)
 .rodata.str1.1
                0x0000000000000000       0x22 /Users/cho45/arm-cs-tools/arm-none-eabi/lib//libc.a(lib_a-svfiprintf.o)
 .rodata.zeroes.6672
                0x0000000000057928       0x10 /Users/cho45/arm-cs-tools/arm-none-eabi/lib//libc.a(lib_a-svfiprintf.o)
 .rodata.str1.1
                0x0000000000057938        0x5 /Users/cho45/arm-cs-tools/arm-none-eabi/lib//libm.a(lib_a-w_fmod.o)
 .rodata.str1.1
                0x000000000005793d        0x6 /Users/cho45/arm-cs-tools/arm-none-eabi/lib//libm.a(lib_a-w_log10.o)
                                          0x7 (size before relaxing)
 .rodata.str1.1
                0x0000000000057943        0x4 /Users/cho45/arm-cs-tools/arm-none-eabi/lib//libm.a(lib_a-w_pow.o)
 *fill*         0x0000000000057947        0x1 
 .rodata.Zero   0x0000000000057948       0x10 /Users/cho45/arm-cs-tools/arm-none-eabi/lib//libm.a(lib_a-e_fmod.o)
 .rodata.dp_h   0x0000000000057958       0x10 /Users/cho45/arm-cs-tools/arm-none-eabi/lib//libm.a(lib_a-e_pow.o)
 .rodata.dp_l   0x0000000000057968       0x10 /Users/cho45/arm-cs-tools/arm-none-eabi/lib//libm.a(lib_a-e_pow.o)
 .rodata.str1.1
                0x0000000000000000        0x1 /Users/cho45/arm-cs-tools/arm-none-eabi/lib//libm.a(lib_a-e_pow.o)
 .rodata.bp     0x0000000000057978       0x10 /Users/cho45/arm-cs-tools/arm-none-eabi/lib//libm.a(lib_a-e_pow.o)
 .rodata.TWO52  0x0000000000057988       0x10 /Users/cho45/arm-cs-tools/arm-none-eabi/lib//libm.a(lib_a-s_rint.o)
                0x0000000000057998                __text_end__ = .
                0x0000000000057998                . = ALIGN (0x8)
                0x0000000000057998                __data_rom_start__ = .

.ARM.extab      0x0000000000057998        0x0
 .ARM.extab     0x0000000000057998        0x0 /Users/cho45/arm-cs-tools/lib/gcc/arm-none-eabi/4.7.3/libgcc.a(_divdi3.o)
 .ARM.extab     0x0000000000057998        0x0 /Users/cho45/arm-cs-tools/lib/gcc/arm-none-eabi/4.7.3/libgcc.a(_udivdi3.o)

.glue_7         0x0000000000057998        0x0
 .glue_7        0x0000000000000000        0x0 linker stubs

.glue_7t        0x0000000000057998        0x0
 .glue_7t       0x0000000000000000        0x0 linker stubs

.vfp11_veneer   0x0000000000057998        0x0
 .vfp11_veneer  0x0000000000000000        0x0 linker stubs

.v4_bx          0x0000000000057998        0x0
 .v4_bx         0x0000000000000000        0x0 linker stubs

.iplt           0x0000000000057998        0x0
 .iplt          0x0000000000000000        0x0 vectors.o

.data           0x0000000000057998      0xa20
                0x0000000000057998                __data_start__ = .
 *(.data .data.*)
 .data          0x0000000000057998        0x0 vectors.o
 .data          0x0000000000057998        0x0 main.o
 .data          0x0000000000057998        0x0 syscalls.o
 .data          0x0000000000057998        0x0 /Users/cho45/project/raspberrypi-mruby-bare-metal/mruby/build/arm-eabi-raspberry-pi/lib/libmruby.a(load.o)
 .data          0x0000000000057998        0x4 /Users/cho45/project/raspberrypi-mruby-bare-metal/mruby/build/arm-eabi-raspberry-pi/lib/libmruby.a(proc.o)
 .data          0x000000000005799c        0x0 /Users/cho45/project/raspberrypi-mruby-bare-metal/mruby/build/arm-eabi-raspberry-pi/lib/libmruby.a(state.o)
 .data          0x000000000005799c        0x0 /Users/cho45/project/raspberrypi-mruby-bare-metal/mruby/build/arm-eabi-raspberry-pi/lib/libmruby.a(string.o)
 .data          0x000000000005799c        0x0 /Users/cho45/project/raspberrypi-mruby-bare-metal/mruby/build/arm-eabi-raspberry-pi/lib/libmruby.a(symbol.o)
 .data          0x000000000005799c        0x0 /Users/cho45/project/raspberrypi-mruby-bare-metal/mruby/build/arm-eabi-raspberry-pi/lib/libmruby.a(variable.o)
 .data          0x000000000005799c      0x130 /Users/cho45/project/raspberrypi-mruby-bare-metal/mruby/build/arm-eabi-raspberry-pi/lib/libmruby.a(vm.o)
 .data          0x0000000000057acc        0x0 /Users/cho45/project/raspberrypi-mruby-bare-metal/mruby/build/arm-eabi-raspberry-pi/lib/libmruby.a(array.o)
 .data          0x0000000000057acc        0x0 /Users/cho45/project/raspberrypi-mruby-bare-metal/mruby/build/arm-eabi-raspberry-pi/lib/libmruby.a(class.o)
 .data          0x0000000000057acc        0x0 /Users/cho45/project/raspberrypi-mruby-bare-metal/mruby/build/arm-eabi-raspberry-pi/lib/libmruby.a(crc.o)
 .data          0x0000000000057acc        0x0 /Users/cho45/project/raspberrypi-mruby-bare-metal/mruby/build/arm-eabi-raspberry-pi/lib/libmruby.a(debug.o)
 .data          0x0000000000057acc        0x0 /Users/cho45/project/raspberrypi-mruby-bare-metal/mruby/build/arm-eabi-raspberry-pi/lib/libmruby.a(error.o)
 .data          0x0000000000057acc        0x0 /Users/cho45/project/raspberrypi-mruby-bare-metal/mruby/build/arm-eabi-raspberry-pi/lib/libmruby.a(gc.o)
 .data          0x0000000000057acc        0x0 /Users/cho45/project/raspberrypi-mruby-bare-metal/mruby/build/arm-eabi-raspberry-pi/lib/libmruby.a(hash.o)
 .data          0x0000000000057acc        0x0 /Users/cho45/project/raspberrypi-mruby-bare-metal/mruby/build/arm-eabi-raspberry-pi/lib/libmruby.a(init.o)
 .data          0x0000000000057acc        0x0 /Users/cho45/project/raspberrypi-mruby-bare-metal/mruby/build/arm-eabi-raspberry-pi/lib/libmruby.a(kernel.o)
 .data          0x0000000000057acc        0x0 /Users/cho45/project/raspberrypi-mruby-bare-metal/mruby/build/arm-eabi-raspberry-pi/lib/libmruby.a(numeric.o)
 .data          0x0000000000057acc        0x0 /Users/cho45/project/raspberrypi-mruby-bare-metal/mruby/build/arm-eabi-raspberry-pi/lib/libmruby.a(object.o)
 .data          0x0000000000057acc        0x0 /Users/cho45/project/raspberrypi-mruby-bare-metal/mruby/build/arm-eabi-raspberry-pi/lib/libmruby.a(print.o)
 .data          0x0000000000057acc        0x0 /Users/cho45/project/raspberrypi-mruby-bare-metal/mruby/build/arm-eabi-raspberry-pi/lib/libmruby.a(range.o)
 .data          0x0000000000057acc        0x0 /Users/cho45/project/raspberrypi-mruby-bare-metal/mruby/build/arm-eabi-raspberry-pi/lib/libmruby.a(version.o)
 .data          0x0000000000057acc        0x0 /Users/cho45/project/raspberrypi-mruby-bare-metal/mruby/build/arm-eabi-raspberry-pi/lib/libmruby.a(mrblib.o)
 .data          0x0000000000057acc        0x0 /Users/cho45/project/raspberrypi-mruby-bare-metal/mruby/build/arm-eabi-raspberry-pi/lib/libmruby.a(backtrace.o)
 .data          0x0000000000057acc        0x0 /Users/cho45/project/raspberrypi-mruby-bare-metal/mruby/build/arm-eabi-raspberry-pi/lib/libmruby.a(compar.o)
 .data          0x0000000000057acc        0x0 /Users/cho45/project/raspberrypi-mruby-bare-metal/mruby/build/arm-eabi-raspberry-pi/lib/libmruby.a(enum.o)
 .data          0x0000000000057acc        0x0 /Users/cho45/project/raspberrypi-mruby-bare-metal/mruby/build/arm-eabi-raspberry-pi/lib/libmruby.a(etc.o)
 .data          0x0000000000057acc        0x0 /Users/cho45/arm-cs-tools/arm-none-eabi/lib//libc.a(lib_a-abort.o)
 .data          0x0000000000057acc        0x0 /Users/cho45/arm-cs-tools/arm-none-eabi/lib//libc.a(lib_a-abs.o)
 .data          0x0000000000057acc        0x0 /Users/cho45/arm-cs-tools/arm-none-eabi/lib//libc.a(lib_a-ctype_.o)
 .data.__ctype_ptr__
                0x0000000000057acc        0x4 /Users/cho45/arm-cs-tools/arm-none-eabi/lib//libc.a(lib_a-ctype_.o)
                0x0000000000057acc                __ctype_ptr__
 .data          0x0000000000057ad0        0x0 /Users/cho45/arm-cs-tools/arm-none-eabi/lib//libc.a(lib_a-errno.o)
 .data          0x0000000000057ad0        0x0 /Users/cho45/arm-cs-tools/arm-none-eabi/lib//libc.a(lib_a-exit.o)
 .data          0x0000000000057ad0        0x0 /Users/cho45/arm-cs-tools/arm-none-eabi/lib//libc.a(lib_a-fputs.o)
 .data          0x0000000000057ad0        0x0 /Users/cho45/arm-cs-tools/arm-none-eabi/lib//libc.a(lib_a-fread.o)
 .data          0x0000000000057ad0        0x0 /Users/cho45/arm-cs-tools/arm-none-eabi/lib//libc.a(lib_a-fseek.o)
 .data          0x0000000000057ad0        0x0 /Users/cho45/arm-cs-tools/arm-none-eabi/lib//libc.a(lib_a-fstatr.o)
 .data          0x0000000000057ad0        0x0 /Users/cho45/arm-cs-tools/arm-none-eabi/lib//libc.a(lib_a-ftell.o)
 .data          0x0000000000057ad0        0x0 /Users/cho45/arm-cs-tools/arm-none-eabi/lib//libc.a(lib_a-fvwrite.o)
 .data          0x0000000000057ad0        0x0 /Users/cho45/arm-cs-tools/arm-none-eabi/lib//libc.a(lib_a-fwrite.o)
 .data          0x0000000000057ad0        0x0 /Users/cho45/arm-cs-tools/arm-none-eabi/lib//libc.a(lib_a-impure.o)
 .data.impure_data
                0x0000000000057ad0      0x428 /Users/cho45/arm-cs-tools/arm-none-eabi/lib//libc.a(lib_a-impure.o)
 .data._impure_ptr
                0x0000000000057ef8        0x4 /Users/cho45/arm-cs-tools/arm-none-eabi/lib//libc.a(lib_a-impure.o)
                0x0000000000057ef8                _impure_ptr
 .data          0x0000000000057efc        0x0 /Users/cho45/arm-cs-tools/arm-none-eabi/lib//libc.a(lib_a-makebuf.o)
 .data          0x0000000000057efc        0x0 /Users/cho45/arm-cs-tools/arm-none-eabi/lib//libc.a(lib_a-malloc.o)
 .data          0x0000000000057efc        0x0 /Users/cho45/arm-cs-tools/arm-none-eabi/lib//libc.a(lib_a-mallocr.o)
 .data.__malloc_av_
                0x0000000000057efc      0x408 /Users/cho45/arm-cs-tools/arm-none-eabi/lib//libc.a(lib_a-mallocr.o)
                0x0000000000057efc                __malloc_av_
 .data.__malloc_trim_threshold
                0x0000000000058304        0x4 /Users/cho45/arm-cs-tools/arm-none-eabi/lib//libc.a(lib_a-mallocr.o)
                0x0000000000058304                __malloc_trim_threshold
 .data.__malloc_sbrk_base
                0x0000000000058308        0x4 /Users/cho45/arm-cs-tools/arm-none-eabi/lib//libc.a(lib_a-mallocr.o)
                0x0000000000058308                __malloc_sbrk_base
 .data          0x000000000005830c        0x0 /Users/cho45/arm-cs-tools/arm-none-eabi/lib//libc.a(lib_a-memchr.o)
 .data          0x000000000005830c        0x0 /Users/cho45/arm-cs-tools/arm-none-eabi/lib//libc.a(lib_a-memcmp.o)
 .data          0x000000000005830c        0x0 /Users/cho45/arm-cs-tools/arm-none-eabi/lib//libc.a(lib_a-memcpy.o)
 .data          0x000000000005830c        0x0 /Users/cho45/arm-cs-tools/arm-none-eabi/lib//libc.a(lib_a-memmove.o)
 .data          0x000000000005830c        0x0 /Users/cho45/arm-cs-tools/arm-none-eabi/lib//libc.a(lib_a-memset.o)
 .data          0x000000000005830c        0x0 /Users/cho45/arm-cs-tools/arm-none-eabi/lib//libc.a(lib_a-mlock.o)
 .data          0x000000000005830c        0x0 /Users/cho45/arm-cs-tools/arm-none-eabi/lib//libc.a(lib_a-printf.o)
 .data          0x000000000005830c        0x0 /Users/cho45/arm-cs-tools/arm-none-eabi/lib//libc.a(lib_a-realloc.o)
 .data          0x000000000005830c        0x0 /Users/cho45/arm-cs-tools/arm-none-eabi/lib//libc.a(lib_a-reallocr.o)
 .data          0x000000000005830c        0x0 /Users/cho45/arm-cs-tools/arm-none-eabi/lib//libc.a(lib_a-reent.o)
 .data          0x000000000005830c        0x0 /Users/cho45/arm-cs-tools/arm-none-eabi/lib//libc.a(lib_a-refill.o)
 .data          0x000000000005830c        0x0 /Users/cho45/arm-cs-tools/arm-none-eabi/lib//libc.a(lib_a-s_fpclassify.o)
 .data          0x000000000005830c        0x0 /Users/cho45/arm-cs-tools/arm-none-eabi/lib//libc.a(lib_a-sbrkr.o)
 .data          0x000000000005830c        0x0 /Users/cho45/arm-cs-tools/arm-none-eabi/lib//libc.a(lib_a-setjmp.o)
 .data          0x000000000005830c        0x0 /Users/cho45/arm-cs-tools/arm-none-eabi/lib//libc.a(lib_a-signal.o)
 .data          0x000000000005830c        0x0 /Users/cho45/arm-cs-tools/arm-none-eabi/lib//libc.a(lib_a-signalr.o)
 .data          0x000000000005830c        0x0 /Users/cho45/arm-cs-tools/arm-none-eabi/lib//libc.a(lib_a-stdio.o)
 .data          0x000000000005830c        0x0 /Users/cho45/arm-cs-tools/arm-none-eabi/lib//libc.a(lib_a-strcmp.o)
 .data          0x000000000005830c        0x0 /Users/cho45/arm-cs-tools/arm-none-eabi/lib//libc.a(lib_a-strlen.o)
 .data          0x000000000005830c        0x0 /Users/cho45/arm-cs-tools/arm-none-eabi/lib//libc.a(lib_a-strtod.o)
 .data.fpi.5209
                0x000000000005830c       0x14 /Users/cho45/arm-cs-tools/arm-none-eabi/lib//libc.a(lib_a-strtod.o)
 .data.fpinan.5245
                0x0000000000058320       0x14 /Users/cho45/arm-cs-tools/arm-none-eabi/lib//libc.a(lib_a-strtod.o)
 .data          0x0000000000058334        0x0 /Users/cho45/arm-cs-tools/arm-none-eabi/lib//libc.a(lib_a-strtoul.o)
 .data          0x0000000000058334        0x0 /Users/cho45/arm-cs-tools/arm-none-eabi/lib//libc.a(lib_a-vfprintf.o)
 .data          0x0000000000058334        0x0 /Users/cho45/arm-cs-tools/arm-none-eabi/lib//libc.a(lib_a-vsnprintf.o)
 .data          0x0000000000058334        0x0 /Users/cho45/arm-cs-tools/arm-none-eabi/lib//libc.a(lib_a-wbuf.o)
 .data          0x0000000000058334        0x0 /Users/cho45/arm-cs-tools/arm-none-eabi/lib//libc.a(lib_a-writer.o)
 .data          0x0000000000058334        0x0 /Users/cho45/arm-cs-tools/arm-none-eabi/lib//libc.a(lib_a-wsetup.o)
 .data          0x0000000000058334        0x0 /Users/cho45/arm-cs-tools/arm-none-eabi/lib//libc.a(lib_a-__call_atexit.o)
 .data          0x0000000000058334        0x0 /Users/cho45/arm-cs-tools/arm-none-eabi/lib//libc.a(lib_a-atexit.o)
 .data          0x0000000000058334        0x0 /Users/cho45/arm-cs-tools/arm-none-eabi/lib//libc.a(lib_a-closer.o)
 .data          0x0000000000058334        0x0 /Users/cho45/arm-cs-tools/arm-none-eabi/lib//libc.a(lib_a-dtoa.o)
 .data          0x0000000000058334        0x0 /Users/cho45/arm-cs-tools/arm-none-eabi/lib//libc.a(lib_a-fflush.o)
 .data          0x0000000000058334        0x0 /Users/cho45/arm-cs-tools/arm-none-eabi/lib//libc.a(lib_a-findfp.o)
 .data          0x0000000000058334        0x0 /Users/cho45/arm-cs-tools/arm-none-eabi/lib//libc.a(lib_a-fini.o)
 .data          0x0000000000058334        0x0 /Users/cho45/arm-cs-tools/arm-none-eabi/lib//libc.a(lib_a-freer.o)
 .data          0x0000000000058334        0x0 /Users/cho45/arm-cs-tools/arm-none-eabi/lib//libc.a(lib_a-fwalk.o)
 .data          0x0000000000058334        0x0 /Users/cho45/arm-cs-tools/arm-none-eabi/lib//libc.a(lib_a-gdtoa-gethex.o)
 .data          0x0000000000058334        0x0 /Users/cho45/arm-cs-tools/arm-none-eabi/lib//libc.a(lib_a-gdtoa-hexnan.o)
 .data          0x0000000000058334        0x0 /Users/cho45/arm-cs-tools/arm-none-eabi/lib//libc.a(lib_a-isattyr.o)
 .data          0x0000000000058334        0x0 /Users/cho45/arm-cs-tools/arm-none-eabi/lib//libc.a(lib_a-locale.o)
 .data.lc_message_charset
                0x0000000000058334       0x20 /Users/cho45/arm-cs-tools/arm-none-eabi/lib//libc.a(lib_a-locale.o)
 .data.lconv    0x0000000000058354       0x38 /Users/cho45/arm-cs-tools/arm-none-eabi/lib//libc.a(lib_a-locale.o)
 .data.lc_ctype_charset
                0x000000000005838c       0x20 /Users/cho45/arm-cs-tools/arm-none-eabi/lib//libc.a(lib_a-locale.o)
 .data.__mb_cur_max
                0x00000000000583ac        0x4 /Users/cho45/arm-cs-tools/arm-none-eabi/lib//libc.a(lib_a-locale.o)
                0x00000000000583ac                __mb_cur_max
 .data          0x00000000000583b0        0x0 /Users/cho45/arm-cs-tools/arm-none-eabi/lib//libc.a(lib_a-lseekr.o)
 .data          0x00000000000583b0        0x0 /Users/cho45/arm-cs-tools/arm-none-eabi/lib//libc.a(lib_a-mprec.o)
 .data          0x00000000000583b0        0x0 /Users/cho45/arm-cs-tools/arm-none-eabi/lib//libc.a(lib_a-readr.o)
 .data          0x00000000000583b0        0x0 /Users/cho45/arm-cs-tools/arm-none-eabi/lib//libc.a(lib_a-strncmp.o)
 .data          0x00000000000583b0        0x0 /Users/cho45/arm-cs-tools/arm-none-eabi/lib//libc.a(lib_a-svfprintf.o)
 .data          0x00000000000583b0        0x0 /Users/cho45/arm-cs-tools/arm-none-eabi/lib//libc.a(lib_a-vfiprintf.o)
 .data          0x00000000000583b0        0x0 /Users/cho45/arm-cs-tools/arm-none-eabi/lib//libc.a(lib_a-__atexit.o)
 .data          0x00000000000583b0        0x0 /Users/cho45/arm-cs-tools/arm-none-eabi/lib//libc.a(lib_a-callocr.o)
 .data          0x00000000000583b0        0x0 /Users/cho45/arm-cs-tools/arm-none-eabi/lib//libc.a(lib_a-fclose.o)
 .data          0x00000000000583b0        0x0 /Users/cho45/arm-cs-tools/arm-none-eabi/lib//libc.a(lib_a-fputwc.o)
 .data          0x00000000000583b0        0x0 /Users/cho45/arm-cs-tools/arm-none-eabi/lib//libc.a(lib_a-svfiprintf.o)
 .data          0x00000000000583b0        0x0 /Users/cho45/arm-cs-tools/arm-none-eabi/lib//libc.a(lib_a-wcrtomb.o)
 .data          0x00000000000583b0        0x0 /Users/cho45/arm-cs-tools/arm-none-eabi/lib//libc.a(lib_a-wctomb_r.o)
 .data.__wctomb
                0x00000000000583b0        0x4 /Users/cho45/arm-cs-tools/arm-none-eabi/lib//libc.a(lib_a-wctomb_r.o)
                0x00000000000583b0                __wctomb
 .data          0x00000000000583b4        0x0 /Users/cho45/arm-cs-tools/arm-none-eabi/lib//libm.a(lib_a-s_ceil.o)
 .data          0x00000000000583b4        0x0 /Users/cho45/arm-cs-tools/arm-none-eabi/lib//libm.a(lib_a-s_floor.o)
 .data          0x00000000000583b4        0x0 /Users/cho45/arm-cs-tools/arm-none-eabi/lib//libm.a(lib_a-w_fmod.o)
 .data          0x00000000000583b4        0x0 /Users/cho45/arm-cs-tools/arm-none-eabi/lib//libm.a(lib_a-w_log10.o)
 .data          0x00000000000583b4        0x0 /Users/cho45/arm-cs-tools/arm-none-eabi/lib//libm.a(lib_a-w_pow.o)
 .data          0x00000000000583b4        0x0 /Users/cho45/arm-cs-tools/arm-none-eabi/lib//libm.a(lib_a-e_fmod.o)
 .data          0x00000000000583b4        0x0 /Users/cho45/arm-cs-tools/arm-none-eabi/lib//libm.a(lib_a-e_log10.o)
 .data          0x00000000000583b4        0x0 /Users/cho45/arm-cs-tools/arm-none-eabi/lib//libm.a(lib_a-e_pow.o)
 .data          0x00000000000583b4        0x0 /Users/cho45/arm-cs-tools/arm-none-eabi/lib//libm.a(lib_a-e_sqrt.o)
 .data          0x00000000000583b4        0x0 /Users/cho45/arm-cs-tools/arm-none-eabi/lib//libm.a(lib_a-s_fabs.o)
 .data          0x00000000000583b4        0x0 /Users/cho45/arm-cs-tools/arm-none-eabi/lib//libm.a(lib_a-s_finite.o)
 .data          0x00000000000583b4        0x0 /Users/cho45/arm-cs-tools/arm-none-eabi/lib//libm.a(lib_a-s_lib_ver.o)
 .data.__fdlib_version
                0x00000000000583b4        0x1 /Users/cho45/arm-cs-tools/arm-none-eabi/lib//libm.a(lib_a-s_lib_ver.o)
                0x00000000000583b4                __fdlib_version
 .data          0x00000000000583b5        0x0 /Users/cho45/arm-cs-tools/arm-none-eabi/lib//libm.a(lib_a-s_matherr.o)
 .data          0x00000000000583b5        0x0 /Users/cho45/arm-cs-tools/arm-none-eabi/lib//libm.a(lib_a-s_nan.o)
 .data          0x00000000000583b5        0x0 /Users/cho45/arm-cs-tools/arm-none-eabi/lib//libm.a(lib_a-s_rint.o)
 .data          0x00000000000583b5        0x0 /Users/cho45/arm-cs-tools/arm-none-eabi/lib//libm.a(lib_a-s_scalbn.o)
 .data          0x00000000000583b5        0x0 /Users/cho45/arm-cs-tools/arm-none-eabi/lib//libm.a(lib_a-e_log.o)
 .data          0x00000000000583b5        0x0 /Users/cho45/arm-cs-tools/arm-none-eabi/lib//libm.a(lib_a-s_copysign.o)
 .data          0x00000000000583b5        0x0 /Users/cho45/arm-cs-tools/lib/gcc/arm-none-eabi/4.7.3/libgcc.a(_udivsi3.o)
 .data          0x00000000000583b5        0x0 /Users/cho45/arm-cs-tools/lib/gcc/arm-none-eabi/4.7.3/libgcc.a(_divsi3.o)
 .data          0x00000000000583b5        0x0 /Users/cho45/arm-cs-tools/lib/gcc/arm-none-eabi/4.7.3/libgcc.a(_dvmd_tls.o)
 .data          0x00000000000583b5        0x0 /Users/cho45/arm-cs-tools/lib/gcc/arm-none-eabi/4.7.3/libgcc.a(_arm_addsubdf3.o)
 .data          0x00000000000583b5        0x0 /Users/cho45/arm-cs-tools/lib/gcc/arm-none-eabi/4.7.3/libgcc.a(_arm_muldivdf3.o)
 .data          0x00000000000583b5        0x0 /Users/cho45/arm-cs-tools/lib/gcc/arm-none-eabi/4.7.3/libgcc.a(_arm_cmpdf2.o)
 .data          0x00000000000583b5        0x0 /Users/cho45/arm-cs-tools/lib/gcc/arm-none-eabi/4.7.3/libgcc.a(_arm_fixdfsi.o)
 .data          0x00000000000583b5        0x0 /Users/cho45/arm-cs-tools/lib/gcc/arm-none-eabi/4.7.3/libgcc.a(_arm_fixunsdfsi.o)
 .data          0x00000000000583b5        0x0 /Users/cho45/arm-cs-tools/lib/gcc/arm-none-eabi/4.7.3/libgcc.a(_arm_truncdfsf2.o)
 .data          0x00000000000583b5        0x0 /Users/cho45/arm-cs-tools/lib/gcc/arm-none-eabi/4.7.3/libgcc.a(_arm_cmpsf2.o)
 .data          0x00000000000583b5        0x0 /Users/cho45/arm-cs-tools/lib/gcc/arm-none-eabi/4.7.3/libgcc.a(_aeabi_uldivmod.o)
 .data          0x00000000000583b5        0x0 /Users/cho45/arm-cs-tools/lib/gcc/arm-none-eabi/4.7.3/libgcc.a(bpabi.o)
 .data          0x00000000000583b5        0x0 /Users/cho45/arm-cs-tools/lib/gcc/arm-none-eabi/4.7.3/libgcc.a(_divdi3.o)
 .data          0x00000000000583b5        0x0 /Users/cho45/arm-cs-tools/lib/gcc/arm-none-eabi/4.7.3/libgcc.a(_udivdi3.o)
 .data          0x00000000000583b5        0x0 /Users/cho45/arm-cs-tools/lib/gcc/arm-none-eabi/4.7.3/libgcc.a(_clzsi2.o)
                0x00000000000583b8                . = ALIGN (0x8)
 *fill*         0x00000000000583b5        0x3 
                0x00000000000583b8                __data_end__ = .
                0x0000000000000a20                __data_size__ = (__data_end__ - __data_start__)
                0x00000000000583b8                __exidx_start = .

.igot.plt       0x00000000000583b8        0x0
 .igot.plt      0x0000000000000000        0x0 vectors.o

.init_array.00000
                0x00000000000583b8        0x4
 .init_array.00000
                0x00000000000583b8        0x4 /Users/cho45/arm-cs-tools/arm-none-eabi/lib//libc.a(lib_a-__call_atexit.o)

.ARM.exidx      0x00000000000583bc        0x8
 *(.ARM.exidx* .gnu.linkonce.armexidx.*)
 .ARM.exidx     0x00000000000583bc        0x8 /Users/cho45/arm-cs-tools/lib/gcc/arm-none-eabi/4.7.3/libgcc.a(_divdi3.o)
 .ARM.exidx     0x00000000000583c4        0x0 /Users/cho45/arm-cs-tools/lib/gcc/arm-none-eabi/4.7.3/libgcc.a(_udivdi3.o)
                                          0x8 (size before relaxing)

.rel.dyn        0x00000000000583c4        0x0
 .rel.iplt      0x0000000000000000        0x0 vectors.o
                0x00000000000583c8                . = ALIGN (0x8)
                0x00000000000583c8                __exidx_end = .

.bss            0x00000000000583c4      0x154
                0x00000000000583c4                __bss_start__ = .
 *(.bss .bss.*)
 .bss           0x00000000000583c4        0x0 vectors.o
 .bss           0x00000000000583c4        0x0 main.o
 .bss           0x00000000000583c4        0x4 syscalls.o
                0x00000000000583c4                heap_end
 .bss           0x00000000000583c8        0x0 /Users/cho45/project/raspberrypi-mruby-bare-metal/mruby/build/arm-eabi-raspberry-pi/lib/libmruby.a(load.o)
 .bss           0x00000000000583c8        0x0 /Users/cho45/project/raspberrypi-mruby-bare-metal/mruby/build/arm-eabi-raspberry-pi/lib/libmruby.a(proc.o)
 .bss           0x00000000000583c8        0x0 /Users/cho45/project/raspberrypi-mruby-bare-metal/mruby/build/arm-eabi-raspberry-pi/lib/libmruby.a(state.o)
 .bss           0x00000000000583c8        0x0 /Users/cho45/project/raspberrypi-mruby-bare-metal/mruby/build/arm-eabi-raspberry-pi/lib/libmruby.a(string.o)
 .bss           0x00000000000583c8        0x0 /Users/cho45/project/raspberrypi-mruby-bare-metal/mruby/build/arm-eabi-raspberry-pi/lib/libmruby.a(symbol.o)
 .bss           0x00000000000583c8        0x0 /Users/cho45/project/raspberrypi-mruby-bare-metal/mruby/build/arm-eabi-raspberry-pi/lib/libmruby.a(variable.o)
 .bss           0x00000000000583c8        0x0 /Users/cho45/project/raspberrypi-mruby-bare-metal/mruby/build/arm-eabi-raspberry-pi/lib/libmruby.a(vm.o)
 .bss           0x00000000000583c8        0x0 /Users/cho45/project/raspberrypi-mruby-bare-metal/mruby/build/arm-eabi-raspberry-pi/lib/libmruby.a(array.o)
 .bss           0x00000000000583c8        0x0 /Users/cho45/project/raspberrypi-mruby-bare-metal/mruby/build/arm-eabi-raspberry-pi/lib/libmruby.a(class.o)
 .bss           0x00000000000583c8        0x0 /Users/cho45/project/raspberrypi-mruby-bare-metal/mruby/build/arm-eabi-raspberry-pi/lib/libmruby.a(crc.o)
 .bss           0x00000000000583c8        0x0 /Users/cho45/project/raspberrypi-mruby-bare-metal/mruby/build/arm-eabi-raspberry-pi/lib/libmruby.a(debug.o)
 .bss           0x00000000000583c8        0x0 /Users/cho45/project/raspberrypi-mruby-bare-metal/mruby/build/arm-eabi-raspberry-pi/lib/libmruby.a(error.o)
 .bss           0x00000000000583c8        0x0 /Users/cho45/project/raspberrypi-mruby-bare-metal/mruby/build/arm-eabi-raspberry-pi/lib/libmruby.a(gc.o)
 .bss           0x00000000000583c8        0x0 /Users/cho45/project/raspberrypi-mruby-bare-metal/mruby/build/arm-eabi-raspberry-pi/lib/libmruby.a(hash.o)
 .bss           0x00000000000583c8        0x0 /Users/cho45/project/raspberrypi-mruby-bare-metal/mruby/build/arm-eabi-raspberry-pi/lib/libmruby.a(init.o)
 .bss           0x00000000000583c8        0x0 /Users/cho45/project/raspberrypi-mruby-bare-metal/mruby/build/arm-eabi-raspberry-pi/lib/libmruby.a(kernel.o)
 .bss           0x00000000000583c8        0x0 /Users/cho45/project/raspberrypi-mruby-bare-metal/mruby/build/arm-eabi-raspberry-pi/lib/libmruby.a(numeric.o)
 .bss           0x00000000000583c8        0x0 /Users/cho45/project/raspberrypi-mruby-bare-metal/mruby/build/arm-eabi-raspberry-pi/lib/libmruby.a(object.o)
 .bss           0x00000000000583c8        0x0 /Users/cho45/project/raspberrypi-mruby-bare-metal/mruby/build/arm-eabi-raspberry-pi/lib/libmruby.a(print.o)
 .bss           0x00000000000583c8        0x0 /Users/cho45/project/raspberrypi-mruby-bare-metal/mruby/build/arm-eabi-raspberry-pi/lib/libmruby.a(range.o)
 .bss           0x00000000000583c8        0x0 /Users/cho45/project/raspberrypi-mruby-bare-metal/mruby/build/arm-eabi-raspberry-pi/lib/libmruby.a(version.o)
 .bss           0x00000000000583c8        0x0 /Users/cho45/project/raspberrypi-mruby-bare-metal/mruby/build/arm-eabi-raspberry-pi/lib/libmruby.a(mrblib.o)
 .bss           0x00000000000583c8        0x0 /Users/cho45/project/raspberrypi-mruby-bare-metal/mruby/build/arm-eabi-raspberry-pi/lib/libmruby.a(backtrace.o)
 .bss           0x00000000000583c8        0x0 /Users/cho45/project/raspberrypi-mruby-bare-metal/mruby/build/arm-eabi-raspberry-pi/lib/libmruby.a(compar.o)
 .bss           0x00000000000583c8        0x0 /Users/cho45/project/raspberrypi-mruby-bare-metal/mruby/build/arm-eabi-raspberry-pi/lib/libmruby.a(enum.o)
 .bss           0x00000000000583c8        0x0 /Users/cho45/project/raspberrypi-mruby-bare-metal/mruby/build/arm-eabi-raspberry-pi/lib/libmruby.a(etc.o)
 .bss           0x00000000000583c8        0x0 /Users/cho45/arm-cs-tools/arm-none-eabi/lib//libc.a(lib_a-abort.o)
 .bss           0x00000000000583c8        0x0 /Users/cho45/arm-cs-tools/arm-none-eabi/lib//libc.a(lib_a-abs.o)
 .bss           0x00000000000583c8        0x0 /Users/cho45/arm-cs-tools/arm-none-eabi/lib//libc.a(lib_a-ctype_.o)
 .bss           0x00000000000583c8        0x0 /Users/cho45/arm-cs-tools/arm-none-eabi/lib//libc.a(lib_a-errno.o)
 .bss           0x00000000000583c8        0x0 /Users/cho45/arm-cs-tools/arm-none-eabi/lib//libc.a(lib_a-exit.o)
 .bss           0x00000000000583c8        0x0 /Users/cho45/arm-cs-tools/arm-none-eabi/lib//libc.a(lib_a-fputs.o)
 .bss           0x00000000000583c8        0x0 /Users/cho45/arm-cs-tools/arm-none-eabi/lib//libc.a(lib_a-fread.o)
 .bss           0x00000000000583c8        0x0 /Users/cho45/arm-cs-tools/arm-none-eabi/lib//libc.a(lib_a-fseek.o)
 .bss           0x00000000000583c8        0x0 /Users/cho45/arm-cs-tools/arm-none-eabi/lib//libc.a(lib_a-fstatr.o)
 .bss           0x00000000000583c8        0x0 /Users/cho45/arm-cs-tools/arm-none-eabi/lib//libc.a(lib_a-ftell.o)
 .bss           0x00000000000583c8        0x0 /Users/cho45/arm-cs-tools/arm-none-eabi/lib//libc.a(lib_a-fvwrite.o)
 .bss           0x00000000000583c8        0x0 /Users/cho45/arm-cs-tools/arm-none-eabi/lib//libc.a(lib_a-fwrite.o)
 .bss           0x00000000000583c8        0x0 /Users/cho45/arm-cs-tools/arm-none-eabi/lib//libc.a(lib_a-impure.o)
 .bss           0x00000000000583c8        0x0 /Users/cho45/arm-cs-tools/arm-none-eabi/lib//libc.a(lib_a-makebuf.o)
 .bss           0x00000000000583c8        0x0 /Users/cho45/arm-cs-tools/arm-none-eabi/lib//libc.a(lib_a-malloc.o)
 .bss           0x00000000000583c8        0x0 /Users/cho45/arm-cs-tools/arm-none-eabi/lib//libc.a(lib_a-mallocr.o)
 .bss.__malloc_max_total_mem
                0x00000000000583c8        0x4 /Users/cho45/arm-cs-tools/arm-none-eabi/lib//libc.a(lib_a-mallocr.o)
                0x00000000000583c8                __malloc_max_total_mem
 .bss.__malloc_max_sbrked_mem
                0x00000000000583cc        0x4 /Users/cho45/arm-cs-tools/arm-none-eabi/lib//libc.a(lib_a-mallocr.o)
                0x00000000000583cc                __malloc_max_sbrked_mem
 .bss.__malloc_top_pad
                0x00000000000583d0        0x4 /Users/cho45/arm-cs-tools/arm-none-eabi/lib//libc.a(lib_a-mallocr.o)
                0x00000000000583d0                __malloc_top_pad
 .bss.__malloc_current_mallinfo
                0x00000000000583d4       0x28 /Users/cho45/arm-cs-tools/arm-none-eabi/lib//libc.a(lib_a-mallocr.o)
                0x00000000000583d4                __malloc_current_mallinfo
 .bss           0x00000000000583fc        0x0 /Users/cho45/arm-cs-tools/arm-none-eabi/lib//libc.a(lib_a-memchr.o)
 .bss           0x00000000000583fc        0x0 /Users/cho45/arm-cs-tools/arm-none-eabi/lib//libc.a(lib_a-memcmp.o)
 .bss           0x00000000000583fc        0x0 /Users/cho45/arm-cs-tools/arm-none-eabi/lib//libc.a(lib_a-memcpy.o)
 .bss           0x00000000000583fc        0x0 /Users/cho45/arm-cs-tools/arm-none-eabi/lib//libc.a(lib_a-memmove.o)
 .bss           0x00000000000583fc        0x0 /Users/cho45/arm-cs-tools/arm-none-eabi/lib//libc.a(lib_a-memset.o)
 .bss           0x00000000000583fc        0x0 /Users/cho45/arm-cs-tools/arm-none-eabi/lib//libc.a(lib_a-mlock.o)
 .bss           0x00000000000583fc        0x0 /Users/cho45/arm-cs-tools/arm-none-eabi/lib//libc.a(lib_a-printf.o)
 .bss           0x00000000000583fc        0x0 /Users/cho45/arm-cs-tools/arm-none-eabi/lib//libc.a(lib_a-realloc.o)
 .bss           0x00000000000583fc        0x0 /Users/cho45/arm-cs-tools/arm-none-eabi/lib//libc.a(lib_a-reallocr.o)
 .bss           0x00000000000583fc        0x0 /Users/cho45/arm-cs-tools/arm-none-eabi/lib//libc.a(lib_a-reent.o)
 .bss           0x00000000000583fc        0x0 /Users/cho45/arm-cs-tools/arm-none-eabi/lib//libc.a(lib_a-refill.o)
 .bss           0x00000000000583fc        0x0 /Users/cho45/arm-cs-tools/arm-none-eabi/lib//libc.a(lib_a-s_fpclassify.o)
 .bss           0x00000000000583fc        0x0 /Users/cho45/arm-cs-tools/arm-none-eabi/lib//libc.a(lib_a-sbrkr.o)
 .bss           0x00000000000583fc        0x0 /Users/cho45/arm-cs-tools/arm-none-eabi/lib//libc.a(lib_a-setjmp.o)
 .bss           0x00000000000583fc        0x0 /Users/cho45/arm-cs-tools/arm-none-eabi/lib//libc.a(lib_a-signal.o)
 .bss           0x00000000000583fc        0x0 /Users/cho45/arm-cs-tools/arm-none-eabi/lib//libc.a(lib_a-signalr.o)
 .bss           0x00000000000583fc        0x0 /Users/cho45/arm-cs-tools/arm-none-eabi/lib//libc.a(lib_a-stdio.o)
 .bss           0x00000000000583fc        0x0 /Users/cho45/arm-cs-tools/arm-none-eabi/lib//libc.a(lib_a-strcmp.o)
 .bss           0x00000000000583fc        0x0 /Users/cho45/arm-cs-tools/arm-none-eabi/lib//libc.a(lib_a-strlen.o)
 .bss           0x00000000000583fc        0x0 /Users/cho45/arm-cs-tools/arm-none-eabi/lib//libc.a(lib_a-strtod.o)
 .bss           0x00000000000583fc        0x0 /Users/cho45/arm-cs-tools/arm-none-eabi/lib//libc.a(lib_a-strtoul.o)
 .bss           0x00000000000583fc        0x0 /Users/cho45/arm-cs-tools/arm-none-eabi/lib//libc.a(lib_a-vfprintf.o)
 .bss           0x00000000000583fc        0x0 /Users/cho45/arm-cs-tools/arm-none-eabi/lib//libc.a(lib_a-vsnprintf.o)
 .bss           0x00000000000583fc        0x0 /Users/cho45/arm-cs-tools/arm-none-eabi/lib//libc.a(lib_a-wbuf.o)
 .bss           0x00000000000583fc        0x0 /Users/cho45/arm-cs-tools/arm-none-eabi/lib//libc.a(lib_a-writer.o)
 .bss           0x00000000000583fc        0x0 /Users/cho45/arm-cs-tools/arm-none-eabi/lib//libc.a(lib_a-wsetup.o)
 .bss           0x00000000000583fc        0x0 /Users/cho45/arm-cs-tools/arm-none-eabi/lib//libc.a(lib_a-__call_atexit.o)
 .bss           0x00000000000583fc        0x0 /Users/cho45/arm-cs-tools/arm-none-eabi/lib//libc.a(lib_a-atexit.o)
 .bss           0x00000000000583fc        0x0 /Users/cho45/arm-cs-tools/arm-none-eabi/lib//libc.a(lib_a-closer.o)
 .bss           0x00000000000583fc        0x0 /Users/cho45/arm-cs-tools/arm-none-eabi/lib//libc.a(lib_a-dtoa.o)
 .bss           0x00000000000583fc        0x0 /Users/cho45/arm-cs-tools/arm-none-eabi/lib//libc.a(lib_a-fflush.o)
 .bss           0x00000000000583fc        0x0 /Users/cho45/arm-cs-tools/arm-none-eabi/lib//libc.a(lib_a-findfp.o)
 .bss           0x00000000000583fc        0x0 /Users/cho45/arm-cs-tools/arm-none-eabi/lib//libc.a(lib_a-fini.o)
 .bss           0x00000000000583fc        0x0 /Users/cho45/arm-cs-tools/arm-none-eabi/lib//libc.a(lib_a-freer.o)
 .bss           0x00000000000583fc        0x0 /Users/cho45/arm-cs-tools/arm-none-eabi/lib//libc.a(lib_a-fwalk.o)
 .bss           0x00000000000583fc        0x0 /Users/cho45/arm-cs-tools/arm-none-eabi/lib//libc.a(lib_a-gdtoa-gethex.o)
 .bss           0x00000000000583fc        0x0 /Users/cho45/arm-cs-tools/arm-none-eabi/lib//libc.a(lib_a-gdtoa-hexnan.o)
 .bss           0x00000000000583fc        0x0 /Users/cho45/arm-cs-tools/arm-none-eabi/lib//libc.a(lib_a-isattyr.o)
 .bss           0x00000000000583fc        0x0 /Users/cho45/arm-cs-tools/arm-none-eabi/lib//libc.a(lib_a-locale.o)
 .bss._PathLocale
                0x00000000000583fc        0x4 /Users/cho45/arm-cs-tools/arm-none-eabi/lib//libc.a(lib_a-locale.o)
                0x00000000000583fc                _PathLocale
 .bss.__nlocale_changed
                0x0000000000058400        0x4 /Users/cho45/arm-cs-tools/arm-none-eabi/lib//libc.a(lib_a-locale.o)
                0x0000000000058400                __nlocale_changed
 .bss.__mlocale_changed
                0x0000000000058404        0x4 /Users/cho45/arm-cs-tools/arm-none-eabi/lib//libc.a(lib_a-locale.o)
                0x0000000000058404                __mlocale_changed
 .bss           0x0000000000058408        0x0 /Users/cho45/arm-cs-tools/arm-none-eabi/lib//libc.a(lib_a-lseekr.o)
 .bss           0x0000000000058408        0x0 /Users/cho45/arm-cs-tools/arm-none-eabi/lib//libc.a(lib_a-mprec.o)
 .bss           0x0000000000058408        0x0 /Users/cho45/arm-cs-tools/arm-none-eabi/lib//libc.a(lib_a-readr.o)
 .bss           0x0000000000058408        0x0 /Users/cho45/arm-cs-tools/arm-none-eabi/lib//libc.a(lib_a-strncmp.o)
 .bss           0x0000000000058408        0x0 /Users/cho45/arm-cs-tools/arm-none-eabi/lib//libc.a(lib_a-svfprintf.o)
 .bss           0x0000000000058408        0x0 /Users/cho45/arm-cs-tools/arm-none-eabi/lib//libc.a(lib_a-vfiprintf.o)
 .bss           0x0000000000058408        0x0 /Users/cho45/arm-cs-tools/arm-none-eabi/lib//libc.a(lib_a-__atexit.o)
 .bss           0x0000000000058408        0x0 /Users/cho45/arm-cs-tools/arm-none-eabi/lib//libc.a(lib_a-callocr.o)
 .bss           0x0000000000058408        0x0 /Users/cho45/arm-cs-tools/arm-none-eabi/lib//libc.a(lib_a-fclose.o)
 .bss           0x0000000000058408        0x0 /Users/cho45/arm-cs-tools/arm-none-eabi/lib//libc.a(lib_a-fputwc.o)
 .bss           0x0000000000058408        0x0 /Users/cho45/arm-cs-tools/arm-none-eabi/lib//libc.a(lib_a-svfiprintf.o)
 .bss           0x0000000000058408        0x0 /Users/cho45/arm-cs-tools/arm-none-eabi/lib//libc.a(lib_a-wcrtomb.o)
 .bss           0x0000000000058408        0x0 /Users/cho45/arm-cs-tools/arm-none-eabi/lib//libc.a(lib_a-wctomb_r.o)
 .bss           0x0000000000058408        0x0 /Users/cho45/arm-cs-tools/arm-none-eabi/lib//libm.a(lib_a-s_ceil.o)
 .bss           0x0000000000058408        0x0 /Users/cho45/arm-cs-tools/arm-none-eabi/lib//libm.a(lib_a-s_floor.o)
 .bss           0x0000000000058408        0x0 /Users/cho45/arm-cs-tools/arm-none-eabi/lib//libm.a(lib_a-w_fmod.o)
 .bss           0x0000000000058408        0x0 /Users/cho45/arm-cs-tools/arm-none-eabi/lib//libm.a(lib_a-w_log10.o)
 .bss           0x0000000000058408        0x0 /Users/cho45/arm-cs-tools/arm-none-eabi/lib//libm.a(lib_a-w_pow.o)
 .bss           0x0000000000058408        0x0 /Users/cho45/arm-cs-tools/arm-none-eabi/lib//libm.a(lib_a-e_fmod.o)
 .bss           0x0000000000058408        0x0 /Users/cho45/arm-cs-tools/arm-none-eabi/lib//libm.a(lib_a-e_log10.o)
 .bss           0x0000000000058408        0x0 /Users/cho45/arm-cs-tools/arm-none-eabi/lib//libm.a(lib_a-e_pow.o)
 .bss           0x0000000000058408        0x0 /Users/cho45/arm-cs-tools/arm-none-eabi/lib//libm.a(lib_a-e_sqrt.o)
 .bss           0x0000000000058408        0x0 /Users/cho45/arm-cs-tools/arm-none-eabi/lib//libm.a(lib_a-s_fabs.o)
 .bss           0x0000000000058408        0x0 /Users/cho45/arm-cs-tools/arm-none-eabi/lib//libm.a(lib_a-s_finite.o)
 .bss           0x0000000000058408        0x0 /Users/cho45/arm-cs-tools/arm-none-eabi/lib//libm.a(lib_a-s_lib_ver.o)
 .bss           0x0000000000058408        0x0 /Users/cho45/arm-cs-tools/arm-none-eabi/lib//libm.a(lib_a-s_matherr.o)
 .bss           0x0000000000058408        0x0 /Users/cho45/arm-cs-tools/arm-none-eabi/lib//libm.a(lib_a-s_nan.o)
 .bss           0x0000000000058408        0x0 /Users/cho45/arm-cs-tools/arm-none-eabi/lib//libm.a(lib_a-s_rint.o)
 .bss           0x0000000000058408        0x0 /Users/cho45/arm-cs-tools/arm-none-eabi/lib//libm.a(lib_a-s_scalbn.o)
 .bss           0x0000000000058408        0x0 /Users/cho45/arm-cs-tools/arm-none-eabi/lib//libm.a(lib_a-e_log.o)
 .bss           0x0000000000058408        0x0 /Users/cho45/arm-cs-tools/arm-none-eabi/lib//libm.a(lib_a-s_copysign.o)
 .bss           0x0000000000058408        0x0 /Users/cho45/arm-cs-tools/lib/gcc/arm-none-eabi/4.7.3/libgcc.a(_udivsi3.o)
 .bss           0x0000000000058408        0x0 /Users/cho45/arm-cs-tools/lib/gcc/arm-none-eabi/4.7.3/libgcc.a(_divsi3.o)
 .bss           0x0000000000058408        0x0 /Users/cho45/arm-cs-tools/lib/gcc/arm-none-eabi/4.7.3/libgcc.a(_dvmd_tls.o)
 .bss           0x0000000000058408        0x0 /Users/cho45/arm-cs-tools/lib/gcc/arm-none-eabi/4.7.3/libgcc.a(_arm_addsubdf3.o)
 .bss           0x0000000000058408        0x0 /Users/cho45/arm-cs-tools/lib/gcc/arm-none-eabi/4.7.3/libgcc.a(_arm_muldivdf3.o)
 .bss           0x0000000000058408        0x0 /Users/cho45/arm-cs-tools/lib/gcc/arm-none-eabi/4.7.3/libgcc.a(_arm_cmpdf2.o)
 .bss           0x0000000000058408        0x0 /Users/cho45/arm-cs-tools/lib/gcc/arm-none-eabi/4.7.3/libgcc.a(_arm_fixdfsi.o)
 .bss           0x0000000000058408        0x0 /Users/cho45/arm-cs-tools/lib/gcc/arm-none-eabi/4.7.3/libgcc.a(_arm_fixunsdfsi.o)
 .bss           0x0000000000058408        0x0 /Users/cho45/arm-cs-tools/lib/gcc/arm-none-eabi/4.7.3/libgcc.a(_arm_truncdfsf2.o)
 .bss           0x0000000000058408        0x0 /Users/cho45/arm-cs-tools/lib/gcc/arm-none-eabi/4.7.3/libgcc.a(_arm_cmpsf2.o)
 .bss           0x0000000000058408        0x0 /Users/cho45/arm-cs-tools/lib/gcc/arm-none-eabi/4.7.3/libgcc.a(_aeabi_uldivmod.o)
 .bss           0x0000000000058408        0x0 /Users/cho45/arm-cs-tools/lib/gcc/arm-none-eabi/4.7.3/libgcc.a(bpabi.o)
 .bss           0x0000000000058408        0x0 /Users/cho45/arm-cs-tools/lib/gcc/arm-none-eabi/4.7.3/libgcc.a(_divdi3.o)
 .bss           0x0000000000058408        0x0 /Users/cho45/arm-cs-tools/lib/gcc/arm-none-eabi/4.7.3/libgcc.a(_udivdi3.o)
 .bss           0x0000000000058408        0x0 /Users/cho45/arm-cs-tools/lib/gcc/arm-none-eabi/4.7.3/libgcc.a(_clzsi2.o)
 *(COMMON)
 COMMON         0x0000000000058408        0x8 main.o
                0x0000000000058408                n
                0x000000000005840c                mrb
 COMMON         0x0000000000058410        0x4 syscalls.o
                0x0000000000058410                prev_heap_end
 COMMON         0x0000000000058414        0x4 /Users/cho45/arm-cs-tools/arm-none-eabi/lib//libc.a(lib_a-reent.o)
                0x0000000000058414                errno
 COMMON         0x0000000000058418      0x100 /Users/cho45/arm-cs-tools/arm-none-eabi/lib//libc.a(lib_a-gdtoa-gethex.o)
                0x0000000000058418                __hexdig
                0x0000000000058518                . = ALIGN (0x8)
                0x0000000000058518                __bss_end__ = .
                0x0000000000000154                __bss_size__ = (__bss_end__ - __bss_start__)

.heap           0x0000000000058518   0x100000
                0x0000000000058518                . = ALIGN (0x8)
                0x0000000000058518                __heap_start__ = .
 *(.heap*)
                0x0000000000158518                . = (. + heap_size)
 *fill*         0x0000000000058518   0x100000 
                0x0000000000158518                . = ALIGN (0x8)
                0x0000000000158518                __heap_limit__ = .
                0x0000000000158518                __mem_end__ = .
LOAD /Users/cho45/project/raspberrypi-mruby-bare-metal/mruby/build/arm-eabi-raspberry-pi/lib/libmruby.a
LOAD /Users/cho45/arm-cs-tools/arm-none-eabi/lib//libc.a
LOAD /Users/cho45/arm-cs-tools/arm-none-eabi/lib//libm.a
LOAD /Users/cho45/arm-cs-tools/lib/gcc/arm-none-eabi/4.7.3/libgcc.a
OUTPUT(main.elf elf32-littlearm)

.ARM.attributes
                0x0000000000000000       0x36
 .ARM.attributes
                0x0000000000000000       0x28 vectors.o
 .ARM.attributes
                0x0000000000000028       0x38 main.o
 .ARM.attributes
                0x0000000000000060       0x38 syscalls.o
 .ARM.attributes
                0x0000000000000098       0x38 /Users/cho45/project/raspberrypi-mruby-bare-metal/mruby/build/arm-eabi-raspberry-pi/lib/libmruby.a(load.o)
 .ARM.attributes
                0x00000000000000d0       0x38 /Users/cho45/project/raspberrypi-mruby-bare-metal/mruby/build/arm-eabi-raspberry-pi/lib/libmruby.a(proc.o)
 .ARM.attributes
                0x0000000000000108       0x38 /Users/cho45/project/raspberrypi-mruby-bare-metal/mruby/build/arm-eabi-raspberry-pi/lib/libmruby.a(state.o)
 .ARM.attributes
                0x0000000000000140       0x38 /Users/cho45/project/raspberrypi-mruby-bare-metal/mruby/build/arm-eabi-raspberry-pi/lib/libmruby.a(string.o)
 .ARM.attributes
                0x0000000000000178       0x38 /Users/cho45/project/raspberrypi-mruby-bare-metal/mruby/build/arm-eabi-raspberry-pi/lib/libmruby.a(symbol.o)
 .ARM.attributes
                0x00000000000001b0       0x38 /Users/cho45/project/raspberrypi-mruby-bare-metal/mruby/build/arm-eabi-raspberry-pi/lib/libmruby.a(variable.o)
 .ARM.attributes
                0x00000000000001e8       0x38 /Users/cho45/project/raspberrypi-mruby-bare-metal/mruby/build/arm-eabi-raspberry-pi/lib/libmruby.a(vm.o)
 .ARM.attributes
                0x0000000000000220       0x38 /Users/cho45/project/raspberrypi-mruby-bare-metal/mruby/build/arm-eabi-raspberry-pi/lib/libmruby.a(array.o)
 .ARM.attributes
                0x0000000000000258       0x38 /Users/cho45/project/raspberrypi-mruby-bare-metal/mruby/build/arm-eabi-raspberry-pi/lib/libmruby.a(class.o)
 .ARM.attributes
                0x0000000000000290       0x38 /Users/cho45/project/raspberrypi-mruby-bare-metal/mruby/build/arm-eabi-raspberry-pi/lib/libmruby.a(crc.o)
 .ARM.attributes
                0x00000000000002c8       0x38 /Users/cho45/project/raspberrypi-mruby-bare-metal/mruby/build/arm-eabi-raspberry-pi/lib/libmruby.a(debug.o)
 .ARM.attributes
                0x0000000000000300       0x38 /Users/cho45/project/raspberrypi-mruby-bare-metal/mruby/build/arm-eabi-raspberry-pi/lib/libmruby.a(error.o)
 .ARM.attributes
                0x0000000000000338       0x38 /Users/cho45/project/raspberrypi-mruby-bare-metal/mruby/build/arm-eabi-raspberry-pi/lib/libmruby.a(gc.o)
 .ARM.attributes
                0x0000000000000370       0x38 /Users/cho45/project/raspberrypi-mruby-bare-metal/mruby/build/arm-eabi-raspberry-pi/lib/libmruby.a(hash.o)
 .ARM.attributes
                0x00000000000003a8       0x38 /Users/cho45/project/raspberrypi-mruby-bare-metal/mruby/build/arm-eabi-raspberry-pi/lib/libmruby.a(init.o)
 .ARM.attributes
                0x00000000000003e0       0x38 /Users/cho45/project/raspberrypi-mruby-bare-metal/mruby/build/arm-eabi-raspberry-pi/lib/libmruby.a(kernel.o)
 .ARM.attributes
                0x0000000000000418       0x38 /Users/cho45/project/raspberrypi-mruby-bare-metal/mruby/build/arm-eabi-raspberry-pi/lib/libmruby.a(numeric.o)
 .ARM.attributes
                0x0000000000000450       0x38 /Users/cho45/project/raspberrypi-mruby-bare-metal/mruby/build/arm-eabi-raspberry-pi/lib/libmruby.a(object.o)
 .ARM.attributes
                0x0000000000000488       0x38 /Users/cho45/project/raspberrypi-mruby-bare-metal/mruby/build/arm-eabi-raspberry-pi/lib/libmruby.a(print.o)
 .ARM.attributes
                0x00000000000004c0       0x38 /Users/cho45/project/raspberrypi-mruby-bare-metal/mruby/build/arm-eabi-raspberry-pi/lib/libmruby.a(range.o)
 .ARM.attributes
                0x00000000000004f8       0x38 /Users/cho45/project/raspberrypi-mruby-bare-metal/mruby/build/arm-eabi-raspberry-pi/lib/libmruby.a(version.o)
 .ARM.attributes
                0x0000000000000530       0x38 /Users/cho45/project/raspberrypi-mruby-bare-metal/mruby/build/arm-eabi-raspberry-pi/lib/libmruby.a(mrblib.o)
 .ARM.attributes
                0x0000000000000568       0x38 /Users/cho45/project/raspberrypi-mruby-bare-metal/mruby/build/arm-eabi-raspberry-pi/lib/libmruby.a(backtrace.o)
 .ARM.attributes
                0x00000000000005a0       0x38 /Users/cho45/project/raspberrypi-mruby-bare-metal/mruby/build/arm-eabi-raspberry-pi/lib/libmruby.a(compar.o)
 .ARM.attributes
                0x00000000000005d8       0x38 /Users/cho45/project/raspberrypi-mruby-bare-metal/mruby/build/arm-eabi-raspberry-pi/lib/libmruby.a(enum.o)
 .ARM.attributes
                0x0000000000000610       0x38 /Users/cho45/project/raspberrypi-mruby-bare-metal/mruby/build/arm-eabi-raspberry-pi/lib/libmruby.a(etc.o)
 .ARM.attributes
                0x0000000000000648       0x30 /Users/cho45/arm-cs-tools/arm-none-eabi/lib//libc.a(lib_a-abort.o)
 .ARM.attributes
                0x0000000000000678       0x30 /Users/cho45/arm-cs-tools/arm-none-eabi/lib//libc.a(lib_a-abs.o)
 .ARM.attributes
                0x00000000000006a8       0x30 /Users/cho45/arm-cs-tools/arm-none-eabi/lib//libc.a(lib_a-ctype_.o)
 .ARM.attributes
                0x00000000000006d8       0x30 /Users/cho45/arm-cs-tools/arm-none-eabi/lib//libc.a(lib_a-errno.o)
 .ARM.attributes
                0x0000000000000708       0x30 /Users/cho45/arm-cs-tools/arm-none-eabi/lib//libc.a(lib_a-exit.o)
 .ARM.attributes
                0x0000000000000738       0x30 /Users/cho45/arm-cs-tools/arm-none-eabi/lib//libc.a(lib_a-fputs.o)
 .ARM.attributes
                0x0000000000000768       0x30 /Users/cho45/arm-cs-tools/arm-none-eabi/lib//libc.a(lib_a-fread.o)
 .ARM.attributes
                0x0000000000000798       0x30 /Users/cho45/arm-cs-tools/arm-none-eabi/lib//libc.a(lib_a-fseek.o)
 .ARM.attributes
                0x00000000000007c8       0x30 /Users/cho45/arm-cs-tools/arm-none-eabi/lib//libc.a(lib_a-fstatr.o)
 .ARM.attributes
                0x00000000000007f8       0x30 /Users/cho45/arm-cs-tools/arm-none-eabi/lib//libc.a(lib_a-ftell.o)
 .ARM.attributes
                0x0000000000000828       0x30 /Users/cho45/arm-cs-tools/arm-none-eabi/lib//libc.a(lib_a-fvwrite.o)
 .ARM.attributes
                0x0000000000000858       0x30 /Users/cho45/arm-cs-tools/arm-none-eabi/lib//libc.a(lib_a-fwrite.o)
 .ARM.attributes
                0x0000000000000888       0x30 /Users/cho45/arm-cs-tools/arm-none-eabi/lib//libc.a(lib_a-impure.o)
 .ARM.attributes
                0x00000000000008b8       0x30 /Users/cho45/arm-cs-tools/arm-none-eabi/lib//libc.a(lib_a-makebuf.o)
 .ARM.attributes
                0x00000000000008e8       0x30 /Users/cho45/arm-cs-tools/arm-none-eabi/lib//libc.a(lib_a-malloc.o)
 .ARM.attributes
                0x0000000000000918       0x30 /Users/cho45/arm-cs-tools/arm-none-eabi/lib//libc.a(lib_a-mallocr.o)
 .ARM.attributes
                0x0000000000000948       0x30 /Users/cho45/arm-cs-tools/arm-none-eabi/lib//libc.a(lib_a-memchr.o)
 .ARM.attributes
                0x0000000000000978       0x30 /Users/cho45/arm-cs-tools/arm-none-eabi/lib//libc.a(lib_a-memcmp.o)
 .ARM.attributes
                0x00000000000009a8       0x30 /Users/cho45/arm-cs-tools/arm-none-eabi/lib//libc.a(lib_a-memcpy.o)
 .ARM.attributes
                0x00000000000009d8       0x30 /Users/cho45/arm-cs-tools/arm-none-eabi/lib//libc.a(lib_a-memmove.o)
 .ARM.attributes
                0x0000000000000a08       0x30 /Users/cho45/arm-cs-tools/arm-none-eabi/lib//libc.a(lib_a-memset.o)
 .ARM.attributes
                0x0000000000000a38       0x30 /Users/cho45/arm-cs-tools/arm-none-eabi/lib//libc.a(lib_a-mlock.o)
 .ARM.attributes
                0x0000000000000a68       0x30 /Users/cho45/arm-cs-tools/arm-none-eabi/lib//libc.a(lib_a-printf.o)
 .ARM.attributes
                0x0000000000000a98       0x30 /Users/cho45/arm-cs-tools/arm-none-eabi/lib//libc.a(lib_a-realloc.o)
 .ARM.attributes
                0x0000000000000ac8       0x30 /Users/cho45/arm-cs-tools/arm-none-eabi/lib//libc.a(lib_a-reallocr.o)
 .ARM.attributes
                0x0000000000000af8       0x30 /Users/cho45/arm-cs-tools/arm-none-eabi/lib//libc.a(lib_a-reent.o)
 .ARM.attributes
                0x0000000000000b28       0x30 /Users/cho45/arm-cs-tools/arm-none-eabi/lib//libc.a(lib_a-refill.o)
 .ARM.attributes
                0x0000000000000b58       0x30 /Users/cho45/arm-cs-tools/arm-none-eabi/lib//libc.a(lib_a-s_fpclassify.o)
 .ARM.attributes
                0x0000000000000b88       0x30 /Users/cho45/arm-cs-tools/arm-none-eabi/lib//libc.a(lib_a-sbrkr.o)
 .ARM.attributes
                0x0000000000000bb8       0x14 /Users/cho45/arm-cs-tools/arm-none-eabi/lib//libc.a(lib_a-setjmp.o)
 .ARM.attributes
                0x0000000000000bcc       0x30 /Users/cho45/arm-cs-tools/arm-none-eabi/lib//libc.a(lib_a-signal.o)
 .ARM.attributes
                0x0000000000000bfc       0x30 /Users/cho45/arm-cs-tools/arm-none-eabi/lib//libc.a(lib_a-signalr.o)
 .ARM.attributes
                0x0000000000000c2c       0x30 /Users/cho45/arm-cs-tools/arm-none-eabi/lib//libc.a(lib_a-stdio.o)
 .ARM.attributes
                0x0000000000000c5c       0x30 /Users/cho45/arm-cs-tools/arm-none-eabi/lib//libc.a(lib_a-strcmp.o)
 .ARM.attributes
                0x0000000000000c8c       0x30 /Users/cho45/arm-cs-tools/arm-none-eabi/lib//libc.a(lib_a-strlen.o)
 .ARM.attributes
                0x0000000000000cbc       0x30 /Users/cho45/arm-cs-tools/arm-none-eabi/lib//libc.a(lib_a-strtod.o)
 .ARM.attributes
                0x0000000000000cec       0x30 /Users/cho45/arm-cs-tools/arm-none-eabi/lib//libc.a(lib_a-strtoul.o)
 .ARM.attributes
                0x0000000000000d1c       0x30 /Users/cho45/arm-cs-tools/arm-none-eabi/lib//libc.a(lib_a-vfprintf.o)
 .ARM.attributes
                0x0000000000000d4c       0x30 /Users/cho45/arm-cs-tools/arm-none-eabi/lib//libc.a(lib_a-vsnprintf.o)
 .ARM.attributes
                0x0000000000000d7c       0x30 /Users/cho45/arm-cs-tools/arm-none-eabi/lib//libc.a(lib_a-wbuf.o)
 .ARM.attributes
                0x0000000000000dac       0x30 /Users/cho45/arm-cs-tools/arm-none-eabi/lib//libc.a(lib_a-writer.o)
 .ARM.attributes
                0x0000000000000ddc       0x30 /Users/cho45/arm-cs-tools/arm-none-eabi/lib//libc.a(lib_a-wsetup.o)
 .ARM.attributes
                0x0000000000000e0c       0x30 /Users/cho45/arm-cs-tools/arm-none-eabi/lib//libc.a(lib_a-__call_atexit.o)
 .ARM.attributes
                0x0000000000000e3c       0x30 /Users/cho45/arm-cs-tools/arm-none-eabi/lib//libc.a(lib_a-atexit.o)
 .ARM.attributes
                0x0000000000000e6c       0x30 /Users/cho45/arm-cs-tools/arm-none-eabi/lib//libc.a(lib_a-closer.o)
 .ARM.attributes
                0x0000000000000e9c       0x30 /Users/cho45/arm-cs-tools/arm-none-eabi/lib//libc.a(lib_a-dtoa.o)
 .ARM.attributes
                0x0000000000000ecc       0x30 /Users/cho45/arm-cs-tools/arm-none-eabi/lib//libc.a(lib_a-fflush.o)
 .ARM.attributes
                0x0000000000000efc       0x30 /Users/cho45/arm-cs-tools/arm-none-eabi/lib//libc.a(lib_a-findfp.o)
 .ARM.attributes
                0x0000000000000f2c       0x30 /Users/cho45/arm-cs-tools/arm-none-eabi/lib//libc.a(lib_a-fini.o)
 .ARM.attributes
                0x0000000000000f5c       0x30 /Users/cho45/arm-cs-tools/arm-none-eabi/lib//libc.a(lib_a-freer.o)
 .ARM.attributes
                0x0000000000000f8c       0x30 /Users/cho45/arm-cs-tools/arm-none-eabi/lib//libc.a(lib_a-fwalk.o)
 .ARM.attributes
                0x0000000000000fbc       0x30 /Users/cho45/arm-cs-tools/arm-none-eabi/lib//libc.a(lib_a-gdtoa-gethex.o)
 .ARM.attributes
                0x0000000000000fec       0x30 /Users/cho45/arm-cs-tools/arm-none-eabi/lib//libc.a(lib_a-gdtoa-hexnan.o)
 .ARM.attributes
                0x000000000000101c       0x30 /Users/cho45/arm-cs-tools/arm-none-eabi/lib//libc.a(lib_a-isattyr.o)
 .ARM.attributes
                0x000000000000104c       0x30 /Users/cho45/arm-cs-tools/arm-none-eabi/lib//libc.a(lib_a-locale.o)
 .ARM.attributes
                0x000000000000107c       0x30 /Users/cho45/arm-cs-tools/arm-none-eabi/lib//libc.a(lib_a-lseekr.o)
 .ARM.attributes
                0x00000000000010ac       0x30 /Users/cho45/arm-cs-tools/arm-none-eabi/lib//libc.a(lib_a-mprec.o)
 .ARM.attributes
                0x00000000000010dc       0x30 /Users/cho45/arm-cs-tools/arm-none-eabi/lib//libc.a(lib_a-readr.o)
 .ARM.attributes
                0x000000000000110c       0x30 /Users/cho45/arm-cs-tools/arm-none-eabi/lib//libc.a(lib_a-strncmp.o)
 .ARM.attributes
                0x000000000000113c       0x30 /Users/cho45/arm-cs-tools/arm-none-eabi/lib//libc.a(lib_a-svfprintf.o)
 .ARM.attributes
                0x000000000000116c       0x30 /Users/cho45/arm-cs-tools/arm-none-eabi/lib//libc.a(lib_a-vfiprintf.o)
 .ARM.attributes
                0x000000000000119c       0x30 /Users/cho45/arm-cs-tools/arm-none-eabi/lib//libc.a(lib_a-__atexit.o)
 .ARM.attributes
                0x00000000000011cc       0x30 /Users/cho45/arm-cs-tools/arm-none-eabi/lib//libc.a(lib_a-callocr.o)
 .ARM.attributes
                0x00000000000011fc       0x30 /Users/cho45/arm-cs-tools/arm-none-eabi/lib//libc.a(lib_a-fclose.o)
 .ARM.attributes
                0x000000000000122c       0x30 /Users/cho45/arm-cs-tools/arm-none-eabi/lib//libc.a(lib_a-fputwc.o)
 .ARM.attributes
                0x000000000000125c       0x30 /Users/cho45/arm-cs-tools/arm-none-eabi/lib//libc.a(lib_a-svfiprintf.o)
 .ARM.attributes
                0x000000000000128c       0x30 /Users/cho45/arm-cs-tools/arm-none-eabi/lib//libc.a(lib_a-wcrtomb.o)
 .ARM.attributes
                0x00000000000012bc       0x30 /Users/cho45/arm-cs-tools/arm-none-eabi/lib//libc.a(lib_a-wctomb_r.o)
 .ARM.attributes
                0x00000000000012ec       0x30 /Users/cho45/arm-cs-tools/arm-none-eabi/lib//libm.a(lib_a-s_ceil.o)
 .ARM.attributes
                0x000000000000131c       0x30 /Users/cho45/arm-cs-tools/arm-none-eabi/lib//libm.a(lib_a-s_floor.o)
 .ARM.attributes
                0x000000000000134c       0x30 /Users/cho45/arm-cs-tools/arm-none-eabi/lib//libm.a(lib_a-w_fmod.o)
 .ARM.attributes
                0x000000000000137c       0x30 /Users/cho45/arm-cs-tools/arm-none-eabi/lib//libm.a(lib_a-w_log10.o)
 .ARM.attributes
                0x00000000000013ac       0x30 /Users/cho45/arm-cs-tools/arm-none-eabi/lib//libm.a(lib_a-w_pow.o)
 .ARM.attributes
                0x00000000000013dc       0x30 /Users/cho45/arm-cs-tools/arm-none-eabi/lib//libm.a(lib_a-e_fmod.o)
 .ARM.attributes
                0x000000000000140c       0x30 /Users/cho45/arm-cs-tools/arm-none-eabi/lib//libm.a(lib_a-e_log10.o)
 .ARM.attributes
                0x000000000000143c       0x30 /Users/cho45/arm-cs-tools/arm-none-eabi/lib//libm.a(lib_a-e_pow.o)
 .ARM.attributes
                0x000000000000146c       0x30 /Users/cho45/arm-cs-tools/arm-none-eabi/lib//libm.a(lib_a-e_sqrt.o)
 .ARM.attributes
                0x000000000000149c       0x30 /Users/cho45/arm-cs-tools/arm-none-eabi/lib//libm.a(lib_a-s_fabs.o)
 .ARM.attributes
                0x00000000000014cc       0x30 /Users/cho45/arm-cs-tools/arm-none-eabi/lib//libm.a(lib_a-s_finite.o)
 .ARM.attributes
                0x00000000000014fc       0x30 /Users/cho45/arm-cs-tools/arm-none-eabi/lib//libm.a(lib_a-s_lib_ver.o)
 .ARM.attributes
                0x000000000000152c       0x30 /Users/cho45/arm-cs-tools/arm-none-eabi/lib//libm.a(lib_a-s_matherr.o)
 .ARM.attributes
                0x000000000000155c       0x30 /Users/cho45/arm-cs-tools/arm-none-eabi/lib//libm.a(lib_a-s_nan.o)
 .ARM.attributes
                0x000000000000158c       0x30 /Users/cho45/arm-cs-tools/arm-none-eabi/lib//libm.a(lib_a-s_rint.o)
 .ARM.attributes
                0x00000000000015bc       0x30 /Users/cho45/arm-cs-tools/arm-none-eabi/lib//libm.a(lib_a-s_scalbn.o)
 .ARM.attributes
                0x00000000000015ec       0x30 /Users/cho45/arm-cs-tools/arm-none-eabi/lib//libm.a(lib_a-e_log.o)
 .ARM.attributes
                0x000000000000161c       0x30 /Users/cho45/arm-cs-tools/arm-none-eabi/lib//libm.a(lib_a-s_copysign.o)
 .ARM.attributes
                0x000000000000164c       0x18 /Users/cho45/arm-cs-tools/lib/gcc/arm-none-eabi/4.7.3/libgcc.a(_udivsi3.o)
 .ARM.attributes
                0x0000000000001664       0x18 /Users/cho45/arm-cs-tools/lib/gcc/arm-none-eabi/4.7.3/libgcc.a(_divsi3.o)
 .ARM.attributes
                0x000000000000167c       0x18 /Users/cho45/arm-cs-tools/lib/gcc/arm-none-eabi/4.7.3/libgcc.a(_dvmd_tls.o)
 .ARM.attributes
                0x0000000000001694       0x18 /Users/cho45/arm-cs-tools/lib/gcc/arm-none-eabi/4.7.3/libgcc.a(_arm_addsubdf3.o)
 .ARM.attributes
                0x00000000000016ac       0x18 /Users/cho45/arm-cs-tools/lib/gcc/arm-none-eabi/4.7.3/libgcc.a(_arm_muldivdf3.o)
 .ARM.attributes
                0x00000000000016c4       0x18 /Users/cho45/arm-cs-tools/lib/gcc/arm-none-eabi/4.7.3/libgcc.a(_arm_cmpdf2.o)
 .ARM.attributes
                0x00000000000016dc       0x18 /Users/cho45/arm-cs-tools/lib/gcc/arm-none-eabi/4.7.3/libgcc.a(_arm_fixdfsi.o)
 .ARM.attributes
                0x00000000000016f4       0x18 /Users/cho45/arm-cs-tools/lib/gcc/arm-none-eabi/4.7.3/libgcc.a(_arm_fixunsdfsi.o)
 .ARM.attributes
                0x000000000000170c       0x18 /Users/cho45/arm-cs-tools/lib/gcc/arm-none-eabi/4.7.3/libgcc.a(_arm_truncdfsf2.o)
 .ARM.attributes
                0x0000000000001724       0x18 /Users/cho45/arm-cs-tools/lib/gcc/arm-none-eabi/4.7.3/libgcc.a(_arm_cmpsf2.o)
 .ARM.attributes
                0x000000000000173c       0x18 /Users/cho45/arm-cs-tools/lib/gcc/arm-none-eabi/4.7.3/libgcc.a(_aeabi_uldivmod.o)
 .ARM.attributes
                0x0000000000001754       0x30 /Users/cho45/arm-cs-tools/lib/gcc/arm-none-eabi/4.7.3/libgcc.a(bpabi.o)
 .ARM.attributes
                0x0000000000001784       0x30 /Users/cho45/arm-cs-tools/lib/gcc/arm-none-eabi/4.7.3/libgcc.a(_divdi3.o)
 .ARM.attributes
                0x00000000000017b4       0x30 /Users/cho45/arm-cs-tools/lib/gcc/arm-none-eabi/4.7.3/libgcc.a(_udivdi3.o)
 .ARM.attributes
                0x00000000000017e4       0x18 /Users/cho45/arm-cs-tools/lib/gcc/arm-none-eabi/4.7.3/libgcc.a(_clzsi2.o)

.comment        0x0000000000000000       0x60
 .comment       0x0000000000000000       0x60 main.o
                                         0x61 (size before relaxing)
 .comment       0x0000000000000000       0x61 syscalls.o
 .comment       0x0000000000000000       0x61 /Users/cho45/project/raspberrypi-mruby-bare-metal/mruby/build/arm-eabi-raspberry-pi/lib/libmruby.a(load.o)
 .comment       0x0000000000000000       0x61 /Users/cho45/project/raspberrypi-mruby-bare-metal/mruby/build/arm-eabi-raspberry-pi/lib/libmruby.a(proc.o)
 .comment       0x0000000000000000       0x61 /Users/cho45/project/raspberrypi-mruby-bare-metal/mruby/build/arm-eabi-raspberry-pi/lib/libmruby.a(state.o)
 .comment       0x0000000000000000       0x61 /Users/cho45/project/raspberrypi-mruby-bare-metal/mruby/build/arm-eabi-raspberry-pi/lib/libmruby.a(string.o)
 .comment       0x0000000000000000       0x61 /Users/cho45/project/raspberrypi-mruby-bare-metal/mruby/build/arm-eabi-raspberry-pi/lib/libmruby.a(symbol.o)
 .comment       0x0000000000000000       0x61 /Users/cho45/project/raspberrypi-mruby-bare-metal/mruby/build/arm-eabi-raspberry-pi/lib/libmruby.a(variable.o)
 .comment       0x0000000000000000       0x61 /Users/cho45/project/raspberrypi-mruby-bare-metal/mruby/build/arm-eabi-raspberry-pi/lib/libmruby.a(vm.o)
 .comment       0x0000000000000000       0x61 /Users/cho45/project/raspberrypi-mruby-bare-metal/mruby/build/arm-eabi-raspberry-pi/lib/libmruby.a(array.o)
 .comment       0x0000000000000000       0x61 /Users/cho45/project/raspberrypi-mruby-bare-metal/mruby/build/arm-eabi-raspberry-pi/lib/libmruby.a(class.o)
 .comment       0x0000000000000000       0x61 /Users/cho45/project/raspberrypi-mruby-bare-metal/mruby/build/arm-eabi-raspberry-pi/lib/libmruby.a(crc.o)
 .comment       0x0000000000000000       0x61 /Users/cho45/project/raspberrypi-mruby-bare-metal/mruby/build/arm-eabi-raspberry-pi/lib/libmruby.a(debug.o)
 .comment       0x0000000000000000       0x61 /Users/cho45/project/raspberrypi-mruby-bare-metal/mruby/build/arm-eabi-raspberry-pi/lib/libmruby.a(error.o)
 .comment       0x0000000000000000       0x61 /Users/cho45/project/raspberrypi-mruby-bare-metal/mruby/build/arm-eabi-raspberry-pi/lib/libmruby.a(gc.o)
 .comment       0x0000000000000000       0x61 /Users/cho45/project/raspberrypi-mruby-bare-metal/mruby/build/arm-eabi-raspberry-pi/lib/libmruby.a(hash.o)
 .comment       0x0000000000000000       0x61 /Users/cho45/project/raspberrypi-mruby-bare-metal/mruby/build/arm-eabi-raspberry-pi/lib/libmruby.a(init.o)
 .comment       0x0000000000000000       0x61 /Users/cho45/project/raspberrypi-mruby-bare-metal/mruby/build/arm-eabi-raspberry-pi/lib/libmruby.a(kernel.o)
 .comment       0x0000000000000000       0x61 /Users/cho45/project/raspberrypi-mruby-bare-metal/mruby/build/arm-eabi-raspberry-pi/lib/libmruby.a(numeric.o)
 .comment       0x0000000000000000       0x61 /Users/cho45/project/raspberrypi-mruby-bare-metal/mruby/build/arm-eabi-raspberry-pi/lib/libmruby.a(object.o)
 .comment       0x0000000000000000       0x61 /Users/cho45/project/raspberrypi-mruby-bare-metal/mruby/build/arm-eabi-raspberry-pi/lib/libmruby.a(print.o)
 .comment       0x0000000000000000       0x61 /Users/cho45/project/raspberrypi-mruby-bare-metal/mruby/build/arm-eabi-raspberry-pi/lib/libmruby.a(range.o)
 .comment       0x0000000000000000       0x61 /Users/cho45/project/raspberrypi-mruby-bare-metal/mruby/build/arm-eabi-raspberry-pi/lib/libmruby.a(version.o)
 .comment       0x0000000000000000       0x61 /Users/cho45/project/raspberrypi-mruby-bare-metal/mruby/build/arm-eabi-raspberry-pi/lib/libmruby.a(mrblib.o)
 .comment       0x0000000000000000       0x61 /Users/cho45/project/raspberrypi-mruby-bare-metal/mruby/build/arm-eabi-raspberry-pi/lib/libmruby.a(backtrace.o)
 .comment       0x0000000000000000       0x61 /Users/cho45/project/raspberrypi-mruby-bare-metal/mruby/build/arm-eabi-raspberry-pi/lib/libmruby.a(compar.o)
 .comment       0x0000000000000000       0x61 /Users/cho45/project/raspberrypi-mruby-bare-metal/mruby/build/arm-eabi-raspberry-pi/lib/libmruby.a(enum.o)
 .comment       0x0000000000000000       0x61 /Users/cho45/project/raspberrypi-mruby-bare-metal/mruby/build/arm-eabi-raspberry-pi/lib/libmruby.a(etc.o)
 .comment       0x0000000000000000       0x61 /Users/cho45/arm-cs-tools/arm-none-eabi/lib//libc.a(lib_a-abort.o)
 .comment       0x0000000000000000       0x61 /Users/cho45/arm-cs-tools/arm-none-eabi/lib//libc.a(lib_a-abs.o)
 .comment       0x0000000000000000       0x61 /Users/cho45/arm-cs-tools/arm-none-eabi/lib//libc.a(lib_a-ctype_.o)
 .comment       0x0000000000000000       0x61 /Users/cho45/arm-cs-tools/arm-none-eabi/lib//libc.a(lib_a-errno.o)
 .comment       0x0000000000000000       0x61 /Users/cho45/arm-cs-tools/arm-none-eabi/lib//libc.a(lib_a-exit.o)
 .comment       0x0000000000000000       0x61 /Users/cho45/arm-cs-tools/arm-none-eabi/lib//libc.a(lib_a-fputs.o)
 .comment       0x0000000000000000       0x61 /Users/cho45/arm-cs-tools/arm-none-eabi/lib//libc.a(lib_a-fread.o)
 .comment       0x0000000000000000       0x61 /Users/cho45/arm-cs-tools/arm-none-eabi/lib//libc.a(lib_a-fseek.o)
 .comment       0x0000000000000000       0x61 /Users/cho45/arm-cs-tools/arm-none-eabi/lib//libc.a(lib_a-fstatr.o)
 .comment       0x0000000000000000       0x61 /Users/cho45/arm-cs-tools/arm-none-eabi/lib//libc.a(lib_a-ftell.o)
 .comment       0x0000000000000000       0x61 /Users/cho45/arm-cs-tools/arm-none-eabi/lib//libc.a(lib_a-fvwrite.o)
 .comment       0x0000000000000000       0x61 /Users/cho45/arm-cs-tools/arm-none-eabi/lib//libc.a(lib_a-fwrite.o)
 .comment       0x0000000000000000       0x61 /Users/cho45/arm-cs-tools/arm-none-eabi/lib//libc.a(lib_a-impure.o)
 .comment       0x0000000000000000       0x61 /Users/cho45/arm-cs-tools/arm-none-eabi/lib//libc.a(lib_a-makebuf.o)
 .comment       0x0000000000000000       0x61 /Users/cho45/arm-cs-tools/arm-none-eabi/lib//libc.a(lib_a-malloc.o)
 .comment       0x0000000000000000       0x61 /Users/cho45/arm-cs-tools/arm-none-eabi/lib//libc.a(lib_a-mallocr.o)
 .comment       0x0000000000000000       0x61 /Users/cho45/arm-cs-tools/arm-none-eabi/lib//libc.a(lib_a-memchr.o)
 .comment       0x0000000000000000       0x61 /Users/cho45/arm-cs-tools/arm-none-eabi/lib//libc.a(lib_a-memcmp.o)
 .comment       0x0000000000000000       0x61 /Users/cho45/arm-cs-tools/arm-none-eabi/lib//libc.a(lib_a-memcpy.o)
 .comment       0x0000000000000000       0x61 /Users/cho45/arm-cs-tools/arm-none-eabi/lib//libc.a(lib_a-memmove.o)
 .comment       0x0000000000000000       0x61 /Users/cho45/arm-cs-tools/arm-none-eabi/lib//libc.a(lib_a-memset.o)
 .comment       0x0000000000000000       0x61 /Users/cho45/arm-cs-tools/arm-none-eabi/lib//libc.a(lib_a-mlock.o)
 .comment       0x0000000000000000       0x61 /Users/cho45/arm-cs-tools/arm-none-eabi/lib//libc.a(lib_a-printf.o)
 .comment       0x0000000000000000       0x61 /Users/cho45/arm-cs-tools/arm-none-eabi/lib//libc.a(lib_a-realloc.o)
 .comment       0x0000000000000000       0x61 /Users/cho45/arm-cs-tools/arm-none-eabi/lib//libc.a(lib_a-reallocr.o)
 .comment       0x0000000000000000       0x61 /Users/cho45/arm-cs-tools/arm-none-eabi/lib//libc.a(lib_a-reent.o)
 .comment       0x0000000000000000       0x61 /Users/cho45/arm-cs-tools/arm-none-eabi/lib//libc.a(lib_a-refill.o)
 .comment       0x0000000000000000       0x61 /Users/cho45/arm-cs-tools/arm-none-eabi/lib//libc.a(lib_a-s_fpclassify.o)
 .comment       0x0000000000000000       0x61 /Users/cho45/arm-cs-tools/arm-none-eabi/lib//libc.a(lib_a-sbrkr.o)
 .comment       0x0000000000000000       0x61 /Users/cho45/arm-cs-tools/arm-none-eabi/lib//libc.a(lib_a-signal.o)
 .comment       0x0000000000000000       0x61 /Users/cho45/arm-cs-tools/arm-none-eabi/lib//libc.a(lib_a-signalr.o)
 .comment       0x0000000000000000       0x61 /Users/cho45/arm-cs-tools/arm-none-eabi/lib//libc.a(lib_a-stdio.o)
 .comment       0x0000000000000000       0x61 /Users/cho45/arm-cs-tools/arm-none-eabi/lib//libc.a(lib_a-strcmp.o)
 .comment       0x0000000000000000       0x61 /Users/cho45/arm-cs-tools/arm-none-eabi/lib//libc.a(lib_a-strlen.o)
 .comment       0x0000000000000000       0x61 /Users/cho45/arm-cs-tools/arm-none-eabi/lib//libc.a(lib_a-strtod.o)
 .comment       0x0000000000000000       0x61 /Users/cho45/arm-cs-tools/arm-none-eabi/lib//libc.a(lib_a-strtoul.o)
 .comment       0x0000000000000000       0x61 /Users/cho45/arm-cs-tools/arm-none-eabi/lib//libc.a(lib_a-vfprintf.o)
 .comment       0x0000000000000000       0x61 /Users/cho45/arm-cs-tools/arm-none-eabi/lib//libc.a(lib_a-vsnprintf.o)
 .comment       0x0000000000000000       0x61 /Users/cho45/arm-cs-tools/arm-none-eabi/lib//libc.a(lib_a-wbuf.o)
 .comment       0x0000000000000000       0x61 /Users/cho45/arm-cs-tools/arm-none-eabi/lib//libc.a(lib_a-writer.o)
 .comment       0x0000000000000000       0x61 /Users/cho45/arm-cs-tools/arm-none-eabi/lib//libc.a(lib_a-wsetup.o)
 .comment       0x0000000000000000       0x61 /Users/cho45/arm-cs-tools/arm-none-eabi/lib//libc.a(lib_a-__call_atexit.o)
 .comment       0x0000000000000000       0x61 /Users/cho45/arm-cs-tools/arm-none-eabi/lib//libc.a(lib_a-atexit.o)
 .comment       0x0000000000000000       0x61 /Users/cho45/arm-cs-tools/arm-none-eabi/lib//libc.a(lib_a-closer.o)
 .comment       0x0000000000000000       0x61 /Users/cho45/arm-cs-tools/arm-none-eabi/lib//libc.a(lib_a-dtoa.o)
 .comment       0x0000000000000000       0x61 /Users/cho45/arm-cs-tools/arm-none-eabi/lib//libc.a(lib_a-fflush.o)
 .comment       0x0000000000000000       0x61 /Users/cho45/arm-cs-tools/arm-none-eabi/lib//libc.a(lib_a-findfp.o)
 .comment       0x0000000000000000       0x61 /Users/cho45/arm-cs-tools/arm-none-eabi/lib//libc.a(lib_a-fini.o)
 .comment       0x0000000000000000       0x61 /Users/cho45/arm-cs-tools/arm-none-eabi/lib//libc.a(lib_a-freer.o)
 .comment       0x0000000000000000       0x61 /Users/cho45/arm-cs-tools/arm-none-eabi/lib//libc.a(lib_a-fwalk.o)
 .comment       0x0000000000000000       0x61 /Users/cho45/arm-cs-tools/arm-none-eabi/lib//libc.a(lib_a-gdtoa-gethex.o)
 .comment       0x0000000000000000       0x61 /Users/cho45/arm-cs-tools/arm-none-eabi/lib//libc.a(lib_a-gdtoa-hexnan.o)
 .comment       0x0000000000000000       0x61 /Users/cho45/arm-cs-tools/arm-none-eabi/lib//libc.a(lib_a-isattyr.o)
 .comment       0x0000000000000000       0x61 /Users/cho45/arm-cs-tools/arm-none-eabi/lib//libc.a(lib_a-locale.o)
 .comment       0x0000000000000000       0x61 /Users/cho45/arm-cs-tools/arm-none-eabi/lib//libc.a(lib_a-lseekr.o)
 .comment       0x0000000000000000       0x61 /Users/cho45/arm-cs-tools/arm-none-eabi/lib//libc.a(lib_a-mprec.o)
 .comment       0x0000000000000000       0x61 /Users/cho45/arm-cs-tools/arm-none-eabi/lib//libc.a(lib_a-readr.o)
 .comment       0x0000000000000000       0x61 /Users/cho45/arm-cs-tools/arm-none-eabi/lib//libc.a(lib_a-strncmp.o)
 .comment       0x0000000000000000       0x61 /Users/cho45/arm-cs-tools/arm-none-eabi/lib//libc.a(lib_a-svfprintf.o)
 .comment       0x0000000000000000       0x61 /Users/cho45/arm-cs-tools/arm-none-eabi/lib//libc.a(lib_a-vfiprintf.o)
 .comment       0x0000000000000000       0x61 /Users/cho45/arm-cs-tools/arm-none-eabi/lib//libc.a(lib_a-__atexit.o)
 .comment       0x0000000000000000       0x61 /Users/cho45/arm-cs-tools/arm-none-eabi/lib//libc.a(lib_a-callocr.o)
 .comment       0x0000000000000000       0x61 /Users/cho45/arm-cs-tools/arm-none-eabi/lib//libc.a(lib_a-fclose.o)
 .comment       0x0000000000000000       0x61 /Users/cho45/arm-cs-tools/arm-none-eabi/lib//libc.a(lib_a-fputwc.o)
 .comment       0x0000000000000000       0x61 /Users/cho45/arm-cs-tools/arm-none-eabi/lib//libc.a(lib_a-svfiprintf.o)
 .comment       0x0000000000000000       0x61 /Users/cho45/arm-cs-tools/arm-none-eabi/lib//libc.a(lib_a-wcrtomb.o)
 .comment       0x0000000000000000       0x61 /Users/cho45/arm-cs-tools/arm-none-eabi/lib//libc.a(lib_a-wctomb_r.o)
 .comment       0x0000000000000000       0x61 /Users/cho45/arm-cs-tools/arm-none-eabi/lib//libm.a(lib_a-s_ceil.o)
 .comment       0x0000000000000000       0x61 /Users/cho45/arm-cs-tools/arm-none-eabi/lib//libm.a(lib_a-s_floor.o)
 .comment       0x0000000000000000       0x61 /Users/cho45/arm-cs-tools/arm-none-eabi/lib//libm.a(lib_a-w_fmod.o)
 .comment       0x0000000000000000       0x61 /Users/cho45/arm-cs-tools/arm-none-eabi/lib//libm.a(lib_a-w_log10.o)
 .comment       0x0000000000000000       0x61 /Users/cho45/arm-cs-tools/arm-none-eabi/lib//libm.a(lib_a-w_pow.o)
 .comment       0x0000000000000000       0x61 /Users/cho45/arm-cs-tools/arm-none-eabi/lib//libm.a(lib_a-e_fmod.o)
 .comment       0x0000000000000000       0x61 /Users/cho45/arm-cs-tools/arm-none-eabi/lib//libm.a(lib_a-e_log10.o)
 .comment       0x0000000000000000       0x61 /Users/cho45/arm-cs-tools/arm-none-eabi/lib//libm.a(lib_a-e_pow.o)
 .comment       0x0000000000000000       0x61 /Users/cho45/arm-cs-tools/arm-none-eabi/lib//libm.a(lib_a-e_sqrt.o)
 .comment       0x0000000000000000       0x61 /Users/cho45/arm-cs-tools/arm-none-eabi/lib//libm.a(lib_a-s_fabs.o)
 .comment       0x0000000000000000       0x61 /Users/cho45/arm-cs-tools/arm-none-eabi/lib//libm.a(lib_a-s_finite.o)
 .comment       0x0000000000000000       0x61 /Users/cho45/arm-cs-tools/arm-none-eabi/lib//libm.a(lib_a-s_lib_ver.o)
 .comment       0x0000000000000000       0x61 /Users/cho45/arm-cs-tools/arm-none-eabi/lib//libm.a(lib_a-s_matherr.o)
 .comment       0x0000000000000000       0x61 /Users/cho45/arm-cs-tools/arm-none-eabi/lib//libm.a(lib_a-s_nan.o)
 .comment       0x0000000000000000       0x61 /Users/cho45/arm-cs-tools/arm-none-eabi/lib//libm.a(lib_a-s_rint.o)
 .comment       0x0000000000000000       0x61 /Users/cho45/arm-cs-tools/arm-none-eabi/lib//libm.a(lib_a-s_scalbn.o)
 .comment       0x0000000000000000       0x61 /Users/cho45/arm-cs-tools/arm-none-eabi/lib//libm.a(lib_a-e_log.o)
 .comment       0x0000000000000000       0x61 /Users/cho45/arm-cs-tools/arm-none-eabi/lib//libm.a(lib_a-s_copysign.o)
 .comment       0x0000000000000000       0x61 /Users/cho45/arm-cs-tools/lib/gcc/arm-none-eabi/4.7.3/libgcc.a(bpabi.o)
 .comment       0x0000000000000000       0x61 /Users/cho45/arm-cs-tools/lib/gcc/arm-none-eabi/4.7.3/libgcc.a(_divdi3.o)
 .comment       0x0000000000000000       0x61 /Users/cho45/arm-cs-tools/lib/gcc/arm-none-eabi/4.7.3/libgcc.a(_udivdi3.o)

.debug_info     0x0000000000000000    0x573d2
 .debug_info    0x0000000000000000      0xbbf main.o
 .debug_info    0x0000000000000bbf      0x716 syscalls.o
 .debug_info    0x00000000000012d5     0x27d8 /Users/cho45/project/raspberrypi-mruby-bare-metal/mruby/build/arm-eabi-raspberry-pi/lib/libmruby.a(load.o)
 .debug_info    0x0000000000003aad     0x1348 /Users/cho45/project/raspberrypi-mruby-bare-metal/mruby/build/arm-eabi-raspberry-pi/lib/libmruby.a(proc.o)
 .debug_info    0x0000000000004df5      0xfa9 /Users/cho45/project/raspberrypi-mruby-bare-metal/mruby/build/arm-eabi-raspberry-pi/lib/libmruby.a(state.o)
 .debug_info    0x0000000000005d9e     0x3138 /Users/cho45/project/raspberrypi-mruby-bare-metal/mruby/build/arm-eabi-raspberry-pi/lib/libmruby.a(string.o)
 .debug_info    0x0000000000008ed6     0x16b4 /Users/cho45/project/raspberrypi-mruby-bare-metal/mruby/build/arm-eabi-raspberry-pi/lib/libmruby.a(symbol.o)
 .debug_info    0x000000000000a58a     0x29c1 /Users/cho45/project/raspberrypi-mruby-bare-metal/mruby/build/arm-eabi-raspberry-pi/lib/libmruby.a(variable.o)
 .debug_info    0x000000000000cf4b     0x2cb9 /Users/cho45/project/raspberrypi-mruby-bare-metal/mruby/build/arm-eabi-raspberry-pi/lib/libmruby.a(vm.o)
 .debug_info    0x000000000000fc04     0x2222 /Users/cho45/project/raspberrypi-mruby-bare-metal/mruby/build/arm-eabi-raspberry-pi/lib/libmruby.a(array.o)
 .debug_info    0x0000000000011e26     0x3811 /Users/cho45/project/raspberrypi-mruby-bare-metal/mruby/build/arm-eabi-raspberry-pi/lib/libmruby.a(class.o)
 .debug_info    0x0000000000015637      0x112 /Users/cho45/project/raspberrypi-mruby-bare-metal/mruby/build/arm-eabi-raspberry-pi/lib/libmruby.a(crc.o)
 .debug_info    0x0000000000015749      0xe18 /Users/cho45/project/raspberrypi-mruby-bare-metal/mruby/build/arm-eabi-raspberry-pi/lib/libmruby.a(debug.o)
 .debug_info    0x0000000000016561     0x1f7b /Users/cho45/project/raspberrypi-mruby-bare-metal/mruby/build/arm-eabi-raspberry-pi/lib/libmruby.a(error.o)
 .debug_info    0x00000000000184dc     0x221e /Users/cho45/project/raspberrypi-mruby-bare-metal/mruby/build/arm-eabi-raspberry-pi/lib/libmruby.a(gc.o)
 .debug_info    0x000000000001a6fa     0x1ed8 /Users/cho45/project/raspberrypi-mruby-bare-metal/mruby/build/arm-eabi-raspberry-pi/lib/libmruby.a(hash.o)
 .debug_info    0x000000000001c5d2      0x8c5 /Users/cho45/project/raspberrypi-mruby-bare-metal/mruby/build/arm-eabi-raspberry-pi/lib/libmruby.a(init.o)
 .debug_info    0x000000000001ce97     0x248e /Users/cho45/project/raspberrypi-mruby-bare-metal/mruby/build/arm-eabi-raspberry-pi/lib/libmruby.a(kernel.o)
 .debug_info    0x000000000001f325     0x1ca7 /Users/cho45/project/raspberrypi-mruby-bare-metal/mruby/build/arm-eabi-raspberry-pi/lib/libmruby.a(numeric.o)
 .debug_info    0x0000000000020fcc     0x14f1 /Users/cho45/project/raspberrypi-mruby-bare-metal/mruby/build/arm-eabi-raspberry-pi/lib/libmruby.a(object.o)
 .debug_info    0x00000000000224bd     0x1384 /Users/cho45/project/raspberrypi-mruby-bare-metal/mruby/build/arm-eabi-raspberry-pi/lib/libmruby.a(print.o)
 .debug_info    0x0000000000023841     0x11cb /Users/cho45/project/raspberrypi-mruby-bare-metal/mruby/build/arm-eabi-raspberry-pi/lib/libmruby.a(range.o)
 .debug_info    0x0000000000024a0c      0x89d /Users/cho45/project/raspberrypi-mruby-bare-metal/mruby/build/arm-eabi-raspberry-pi/lib/libmruby.a(version.o)
 .debug_info    0x00000000000252a9      0x8c8 /Users/cho45/project/raspberrypi-mruby-bare-metal/mruby/build/arm-eabi-raspberry-pi/lib/libmruby.a(mrblib.o)
 .debug_info    0x0000000000025b71     0x1ad7 /Users/cho45/project/raspberrypi-mruby-bare-metal/mruby/build/arm-eabi-raspberry-pi/lib/libmruby.a(backtrace.o)
 .debug_info    0x0000000000027648      0x89c /Users/cho45/project/raspberrypi-mruby-bare-metal/mruby/build/arm-eabi-raspberry-pi/lib/libmruby.a(compar.o)
 .debug_info    0x0000000000027ee4      0x89c /Users/cho45/project/raspberrypi-mruby-bare-metal/mruby/build/arm-eabi-raspberry-pi/lib/libmruby.a(enum.o)
 .debug_info    0x0000000000028780      0xcb7 /Users/cho45/project/raspberrypi-mruby-bare-metal/mruby/build/arm-eabi-raspberry-pi/lib/libmruby.a(etc.o)
 .debug_info    0x0000000000029437       0xe3 /Users/cho45/arm-cs-tools/arm-none-eabi/lib//libc.a(lib_a-abort.o)
 .debug_info    0x000000000002951a       0xa5 /Users/cho45/arm-cs-tools/arm-none-eabi/lib//libc.a(lib_a-abs.o)
 .debug_info    0x00000000000295bf       0x71 /Users/cho45/arm-cs-tools/arm-none-eabi/lib//libc.a(lib_a-ctype_.o)
 .debug_info    0x0000000000029630      0x962 /Users/cho45/arm-cs-tools/arm-none-eabi/lib//libc.a(lib_a-errno.o)
 .debug_info    0x0000000000029f92      0x9c4 /Users/cho45/arm-cs-tools/arm-none-eabi/lib//libc.a(lib_a-exit.o)
 .debug_info    0x000000000002a956      0xb2a /Users/cho45/arm-cs-tools/arm-none-eabi/lib//libc.a(lib_a-fputs.o)
 .debug_info    0x000000000002b480      0xb65 /Users/cho45/arm-cs-tools/arm-none-eabi/lib//libc.a(lib_a-fread.o)
 .debug_info    0x000000000002bfe5      0xedd /Users/cho45/arm-cs-tools/arm-none-eabi/lib//libc.a(lib_a-fseek.o)
 .debug_info    0x000000000002cec2      0xb69 /Users/cho45/arm-cs-tools/arm-none-eabi/lib//libc.a(lib_a-fstatr.o)
 .debug_info    0x000000000002da2b      0xa4b /Users/cho45/arm-cs-tools/arm-none-eabi/lib//libc.a(lib_a-ftell.o)
 .debug_info    0x000000000002e476      0xd83 /Users/cho45/arm-cs-tools/arm-none-eabi/lib//libc.a(lib_a-fvwrite.o)
 .debug_info    0x000000000002f1f9      0xb48 /Users/cho45/arm-cs-tools/arm-none-eabi/lib//libc.a(lib_a-fwrite.o)
 .debug_info    0x000000000002fd41      0x965 /Users/cho45/arm-cs-tools/arm-none-eabi/lib//libc.a(lib_a-impure.o)
 .debug_info    0x00000000000306a6      0xbee /Users/cho45/arm-cs-tools/arm-none-eabi/lib//libc.a(lib_a-makebuf.o)
 .debug_info    0x0000000000031294      0x9fa /Users/cho45/arm-cs-tools/arm-none-eabi/lib//libc.a(lib_a-malloc.o)
 .debug_info    0x0000000000031c8e      0xe29 /Users/cho45/arm-cs-tools/arm-none-eabi/lib//libc.a(lib_a-mallocr.o)
 .debug_info    0x0000000000032ab7      0x100 /Users/cho45/arm-cs-tools/arm-none-eabi/lib//libc.a(lib_a-memchr.o)
 .debug_info    0x0000000000032bb7       0xf8 /Users/cho45/arm-cs-tools/arm-none-eabi/lib//libc.a(lib_a-memcmp.o)
 .debug_info    0x0000000000032caf       0xff /Users/cho45/arm-cs-tools/arm-none-eabi/lib//libc.a(lib_a-memcpy.o)
 .debug_info    0x0000000000032dae      0x10a /Users/cho45/arm-cs-tools/arm-none-eabi/lib//libc.a(lib_a-memmove.o)
 .debug_info    0x0000000000032eb8      0x100 /Users/cho45/arm-cs-tools/arm-none-eabi/lib//libc.a(lib_a-memset.o)
 .debug_info    0x0000000000032fb8      0x98d /Users/cho45/arm-cs-tools/arm-none-eabi/lib//libc.a(lib_a-mlock.o)
 .debug_info    0x0000000000033945      0xa90 /Users/cho45/arm-cs-tools/arm-none-eabi/lib//libc.a(lib_a-printf.o)
 .debug_info    0x00000000000343d5      0x9c0 /Users/cho45/arm-cs-tools/arm-none-eabi/lib//libc.a(lib_a-realloc.o)
 .debug_info    0x0000000000034d95      0xd8a /Users/cho45/arm-cs-tools/arm-none-eabi/lib//libc.a(lib_a-reallocr.o)
 .debug_info    0x0000000000035b1f      0xb2a /Users/cho45/arm-cs-tools/arm-none-eabi/lib//libc.a(lib_a-reent.o)
 .debug_info    0x0000000000036649      0xaf4 /Users/cho45/arm-cs-tools/arm-none-eabi/lib//libc.a(lib_a-refill.o)
 .debug_info    0x000000000003713d       0xe3 /Users/cho45/arm-cs-tools/arm-none-eabi/lib//libc.a(lib_a-s_fpclassify.o)
 .debug_info    0x0000000000037220      0x9d4 /Users/cho45/arm-cs-tools/arm-none-eabi/lib//libc.a(lib_a-sbrkr.o)
 .debug_info    0x0000000000037bf4       0xc9 /Users/cho45/arm-cs-tools/arm-none-eabi/lib//libc.a(lib_a-setjmp.o)
 .debug_info    0x0000000000037cbd      0xc76 /Users/cho45/arm-cs-tools/arm-none-eabi/lib//libc.a(lib_a-signal.o)
 .debug_info    0x0000000000038933      0xa3f /Users/cho45/arm-cs-tools/arm-none-eabi/lib//libc.a(lib_a-signalr.o)
 .debug_info    0x0000000000039372      0xc80 /Users/cho45/arm-cs-tools/arm-none-eabi/lib//libc.a(lib_a-stdio.o)
 .debug_info    0x0000000000039ff2       0xbd /Users/cho45/arm-cs-tools/arm-none-eabi/lib//libc.a(lib_a-strcmp.o)
 .debug_info    0x000000000003a0af       0xd5 /Users/cho45/arm-cs-tools/arm-none-eabi/lib//libc.a(lib_a-strlen.o)
 .debug_info    0x000000000003a184     0x1852 /Users/cho45/arm-cs-tools/arm-none-eabi/lib//libc.a(lib_a-strtod.o)
 .debug_info    0x000000000003b9d6      0xa7f /Users/cho45/arm-cs-tools/arm-none-eabi/lib//libc.a(lib_a-strtoul.o)
 .debug_info    0x000000000003c455     0x18fa /Users/cho45/arm-cs-tools/arm-none-eabi/lib//libc.a(lib_a-vfprintf.o)
 .debug_info    0x000000000003dd4f      0xad8 /Users/cho45/arm-cs-tools/arm-none-eabi/lib//libc.a(lib_a-vsnprintf.o)
 .debug_info    0x000000000003e827      0xaa6 /Users/cho45/arm-cs-tools/arm-none-eabi/lib//libc.a(lib_a-wbuf.o)
 .debug_info    0x000000000003f2cd      0xa07 /Users/cho45/arm-cs-tools/arm-none-eabi/lib//libc.a(lib_a-writer.o)
 .debug_info    0x000000000003fcd4      0xa05 /Users/cho45/arm-cs-tools/arm-none-eabi/lib//libc.a(lib_a-wsetup.o)
 .debug_info    0x00000000000406d9      0xa83 /Users/cho45/arm-cs-tools/arm-none-eabi/lib//libc.a(lib_a-__call_atexit.o)
 .debug_info    0x000000000004115c      0x117 /Users/cho45/arm-cs-tools/arm-none-eabi/lib//libc.a(lib_a-atexit.o)
 .debug_info    0x0000000000041273      0x9be /Users/cho45/arm-cs-tools/arm-none-eabi/lib//libc.a(lib_a-closer.o)
 .debug_info    0x0000000000041c31     0x13e4 /Users/cho45/arm-cs-tools/arm-none-eabi/lib//libc.a(lib_a-dtoa.o)
 .debug_info    0x0000000000043015      0xb2f /Users/cho45/arm-cs-tools/arm-none-eabi/lib//libc.a(lib_a-fflush.o)
 .debug_info    0x0000000000043b44      0xdbe /Users/cho45/arm-cs-tools/arm-none-eabi/lib//libc.a(lib_a-findfp.o)
 .debug_info    0x0000000000044902       0xfe /Users/cho45/arm-cs-tools/arm-none-eabi/lib//libc.a(lib_a-fini.o)
 .debug_info    0x0000000000044a00      0xd12 /Users/cho45/arm-cs-tools/arm-none-eabi/lib//libc.a(lib_a-freer.o)
 .debug_info    0x0000000000045712      0xb95 /Users/cho45/arm-cs-tools/arm-none-eabi/lib//libc.a(lib_a-fwalk.o)
 .debug_info    0x00000000000462a7     0x12e0 /Users/cho45/arm-cs-tools/arm-none-eabi/lib//libc.a(lib_a-gdtoa-gethex.o)
 .debug_info    0x0000000000047587      0x2f2 /Users/cho45/arm-cs-tools/arm-none-eabi/lib//libc.a(lib_a-gdtoa-hexnan.o)
 .debug_info    0x0000000000047879      0x9be /Users/cho45/arm-cs-tools/arm-none-eabi/lib//libc.a(lib_a-isattyr.o)
 .debug_info    0x0000000000048237      0xd13 /Users/cho45/arm-cs-tools/arm-none-eabi/lib//libc.a(lib_a-locale.o)
 .debug_info    0x0000000000048f4a      0x9f5 /Users/cho45/arm-cs-tools/arm-none-eabi/lib//libc.a(lib_a-lseekr.o)
 .debug_info    0x000000000004993f     0x174d /Users/cho45/arm-cs-tools/arm-none-eabi/lib//libc.a(lib_a-mprec.o)
 .debug_info    0x000000000004b08c      0xa00 /Users/cho45/arm-cs-tools/arm-none-eabi/lib//libc.a(lib_a-readr.o)
 .debug_info    0x000000000004ba8c       0xd8 /Users/cho45/arm-cs-tools/arm-none-eabi/lib//libc.a(lib_a-strncmp.o)
 .debug_info    0x000000000004bb64     0x1761 /Users/cho45/arm-cs-tools/arm-none-eabi/lib//libc.a(lib_a-svfprintf.o)
 .debug_info    0x000000000004d2c5     0x12d4 /Users/cho45/arm-cs-tools/arm-none-eabi/lib//libc.a(lib_a-vfiprintf.o)
 .debug_info    0x000000000004e599      0xa1d /Users/cho45/arm-cs-tools/arm-none-eabi/lib//libc.a(lib_a-__atexit.o)
 .debug_info    0x000000000004efb6      0xace /Users/cho45/arm-cs-tools/arm-none-eabi/lib//libc.a(lib_a-callocr.o)
 .debug_info    0x000000000004fa84      0xac7 /Users/cho45/arm-cs-tools/arm-none-eabi/lib//libc.a(lib_a-fclose.o)
 .debug_info    0x000000000005054b      0xb83 /Users/cho45/arm-cs-tools/arm-none-eabi/lib//libc.a(lib_a-fputwc.o)
 .debug_info    0x00000000000510ce     0x1114 /Users/cho45/arm-cs-tools/arm-none-eabi/lib//libc.a(lib_a-svfiprintf.o)
 .debug_info    0x00000000000521e2      0xaad /Users/cho45/arm-cs-tools/arm-none-eabi/lib//libc.a(lib_a-wcrtomb.o)
 .debug_info    0x0000000000052c8f      0xa96 /Users/cho45/arm-cs-tools/arm-none-eabi/lib//libc.a(lib_a-wctomb_r.o)
 .debug_info    0x0000000000053725      0x1b4 /Users/cho45/arm-cs-tools/arm-none-eabi/lib//libm.a(lib_a-s_ceil.o)
 .debug_info    0x00000000000538d9      0x1b4 /Users/cho45/arm-cs-tools/arm-none-eabi/lib//libm.a(lib_a-s_floor.o)
 .debug_info    0x0000000000053a8d      0x254 /Users/cho45/arm-cs-tools/arm-none-eabi/lib//libm.a(lib_a-w_fmod.o)
 .debug_info    0x0000000000053ce1      0x27d /Users/cho45/arm-cs-tools/arm-none-eabi/lib//libm.a(lib_a-w_log10.o)
 .debug_info    0x0000000000053f5e      0x2f0 /Users/cho45/arm-cs-tools/arm-none-eabi/lib//libm.a(lib_a-w_pow.o)
 .debug_info    0x000000000005424e      0x26b /Users/cho45/arm-cs-tools/arm-none-eabi/lib//libm.a(lib_a-e_fmod.o)
 .debug_info    0x00000000000544b9      0x248 /Users/cho45/arm-cs-tools/arm-none-eabi/lib//libm.a(lib_a-e_log10.o)
 .debug_info    0x0000000000054701      0x77c /Users/cho45/arm-cs-tools/arm-none-eabi/lib//libm.a(lib_a-e_pow.o)
 .debug_info    0x0000000000054e7d      0x23a /Users/cho45/arm-cs-tools/arm-none-eabi/lib//libm.a(lib_a-e_sqrt.o)
 .debug_info    0x00000000000550b7      0x13e /Users/cho45/arm-cs-tools/arm-none-eabi/lib//libm.a(lib_a-s_fabs.o)
 .debug_info    0x00000000000551f5       0xde /Users/cho45/arm-cs-tools/arm-none-eabi/lib//libm.a(lib_a-s_finite.o)
 .debug_info    0x00000000000552d3       0xc0 /Users/cho45/arm-cs-tools/arm-none-eabi/lib//libm.a(lib_a-s_lib_ver.o)
 .debug_info    0x0000000000055393      0x13d /Users/cho45/arm-cs-tools/arm-none-eabi/lib//libm.a(lib_a-s_matherr.o)
 .debug_info    0x00000000000554d0       0xd9 /Users/cho45/arm-cs-tools/arm-none-eabi/lib//libm.a(lib_a-s_nan.o)
 .debug_info    0x00000000000555a9      0x22a /Users/cho45/arm-cs-tools/arm-none-eabi/lib//libm.a(lib_a-s_rint.o)
 .debug_info    0x00000000000557d3      0x23d /Users/cho45/arm-cs-tools/arm-none-eabi/lib//libm.a(lib_a-s_scalbn.o)
 .debug_info    0x0000000000055a10      0x304 /Users/cho45/arm-cs-tools/arm-none-eabi/lib//libm.a(lib_a-e_log.o)
 .debug_info    0x0000000000055d14      0x170 /Users/cho45/arm-cs-tools/arm-none-eabi/lib//libm.a(lib_a-s_copysign.o)
 .debug_info    0x0000000000055e84       0xb0 /Users/cho45/arm-cs-tools/lib/gcc/arm-none-eabi/4.7.3/libgcc.a(_udivsi3.o)
 .debug_info    0x0000000000055f34       0xb0 /Users/cho45/arm-cs-tools/lib/gcc/arm-none-eabi/4.7.3/libgcc.a(_divsi3.o)
 .debug_info    0x0000000000055fe4       0xb0 /Users/cho45/arm-cs-tools/lib/gcc/arm-none-eabi/4.7.3/libgcc.a(_dvmd_tls.o)
 .debug_info    0x0000000000056094       0xb1 /Users/cho45/arm-cs-tools/lib/gcc/arm-none-eabi/4.7.3/libgcc.a(_arm_addsubdf3.o)
 .debug_info    0x0000000000056145       0xb1 /Users/cho45/arm-cs-tools/lib/gcc/arm-none-eabi/4.7.3/libgcc.a(_arm_muldivdf3.o)
 .debug_info    0x00000000000561f6       0xb1 /Users/cho45/arm-cs-tools/lib/gcc/arm-none-eabi/4.7.3/libgcc.a(_arm_cmpdf2.o)
 .debug_info    0x00000000000562a7       0xb1 /Users/cho45/arm-cs-tools/lib/gcc/arm-none-eabi/4.7.3/libgcc.a(_arm_fixdfsi.o)
 .debug_info    0x0000000000056358       0xb1 /Users/cho45/arm-cs-tools/lib/gcc/arm-none-eabi/4.7.3/libgcc.a(_arm_fixunsdfsi.o)
 .debug_info    0x0000000000056409       0xb1 /Users/cho45/arm-cs-tools/lib/gcc/arm-none-eabi/4.7.3/libgcc.a(_arm_truncdfsf2.o)
 .debug_info    0x00000000000564ba       0xb1 /Users/cho45/arm-cs-tools/lib/gcc/arm-none-eabi/4.7.3/libgcc.a(_arm_cmpsf2.o)
 .debug_info    0x000000000005656b       0xac /Users/cho45/arm-cs-tools/lib/gcc/arm-none-eabi/4.7.3/libgcc.a(_aeabi_uldivmod.o)
 .debug_info    0x0000000000056617      0x174 /Users/cho45/arm-cs-tools/lib/gcc/arm-none-eabi/4.7.3/libgcc.a(bpabi.o)
 .debug_info    0x000000000005678b      0x5ec /Users/cho45/arm-cs-tools/lib/gcc/arm-none-eabi/4.7.3/libgcc.a(_divdi3.o)
 .debug_info    0x0000000000056d77      0x5ab /Users/cho45/arm-cs-tools/lib/gcc/arm-none-eabi/4.7.3/libgcc.a(_udivdi3.o)
 .debug_info    0x0000000000057322       0xb0 /Users/cho45/arm-cs-tools/lib/gcc/arm-none-eabi/4.7.3/libgcc.a(_clzsi2.o)

.debug_abbrev   0x0000000000000000     0xdd7a
 .debug_abbrev  0x0000000000000000      0x202 main.o
 .debug_abbrev  0x0000000000000202      0x183 syscalls.o
 .debug_abbrev  0x0000000000000385      0x31e /Users/cho45/project/raspberrypi-mruby-bare-metal/mruby/build/arm-eabi-raspberry-pi/lib/libmruby.a(load.o)
 .debug_abbrev  0x00000000000006a3      0x2b7 /Users/cho45/project/raspberrypi-mruby-bare-metal/mruby/build/arm-eabi-raspberry-pi/lib/libmruby.a(proc.o)
 .debug_abbrev  0x000000000000095a      0x2a6 /Users/cho45/project/raspberrypi-mruby-bare-metal/mruby/build/arm-eabi-raspberry-pi/lib/libmruby.a(state.o)
 .debug_abbrev  0x0000000000000c00      0x3bc /Users/cho45/project/raspberrypi-mruby-bare-metal/mruby/build/arm-eabi-raspberry-pi/lib/libmruby.a(string.o)
 .debug_abbrev  0x0000000000000fbc      0x350 /Users/cho45/project/raspberrypi-mruby-bare-metal/mruby/build/arm-eabi-raspberry-pi/lib/libmruby.a(symbol.o)
 .debug_abbrev  0x000000000000130c      0x2e0 /Users/cho45/project/raspberrypi-mruby-bare-metal/mruby/build/arm-eabi-raspberry-pi/lib/libmruby.a(variable.o)
 .debug_abbrev  0x00000000000015ec      0x330 /Users/cho45/project/raspberrypi-mruby-bare-metal/mruby/build/arm-eabi-raspberry-pi/lib/libmruby.a(vm.o)
 .debug_abbrev  0x000000000000191c      0x337 /Users/cho45/project/raspberrypi-mruby-bare-metal/mruby/build/arm-eabi-raspberry-pi/lib/libmruby.a(array.o)
 .debug_abbrev  0x0000000000001c53      0x3c0 /Users/cho45/project/raspberrypi-mruby-bare-metal/mruby/build/arm-eabi-raspberry-pi/lib/libmruby.a(class.o)
 .debug_abbrev  0x0000000000002013       0x8e /Users/cho45/project/raspberrypi-mruby-bare-metal/mruby/build/arm-eabi-raspberry-pi/lib/libmruby.a(crc.o)
 .debug_abbrev  0x00000000000020a1      0x204 /Users/cho45/project/raspberrypi-mruby-bare-metal/mruby/build/arm-eabi-raspberry-pi/lib/libmruby.a(debug.o)
 .debug_abbrev  0x00000000000022a5      0x382 /Users/cho45/project/raspberrypi-mruby-bare-metal/mruby/build/arm-eabi-raspberry-pi/lib/libmruby.a(error.o)
 .debug_abbrev  0x0000000000002627      0x342 /Users/cho45/project/raspberrypi-mruby-bare-metal/mruby/build/arm-eabi-raspberry-pi/lib/libmruby.a(gc.o)
 .debug_abbrev  0x0000000000002969      0x330 /Users/cho45/project/raspberrypi-mruby-bare-metal/mruby/build/arm-eabi-raspberry-pi/lib/libmruby.a(hash.o)
 .debug_abbrev  0x0000000000002c99      0x188 /Users/cho45/project/raspberrypi-mruby-bare-metal/mruby/build/arm-eabi-raspberry-pi/lib/libmruby.a(init.o)
 .debug_abbrev  0x0000000000002e21      0x33d /Users/cho45/project/raspberrypi-mruby-bare-metal/mruby/build/arm-eabi-raspberry-pi/lib/libmruby.a(kernel.o)
 .debug_abbrev  0x000000000000315e      0x2b2 /Users/cho45/project/raspberrypi-mruby-bare-metal/mruby/build/arm-eabi-raspberry-pi/lib/libmruby.a(numeric.o)
 .debug_abbrev  0x0000000000003410      0x2c8 /Users/cho45/project/raspberrypi-mruby-bare-metal/mruby/build/arm-eabi-raspberry-pi/lib/libmruby.a(object.o)
 .debug_abbrev  0x00000000000036d8      0x279 /Users/cho45/project/raspberrypi-mruby-bare-metal/mruby/build/arm-eabi-raspberry-pi/lib/libmruby.a(print.o)
 .debug_abbrev  0x0000000000003951      0x2af /Users/cho45/project/raspberrypi-mruby-bare-metal/mruby/build/arm-eabi-raspberry-pi/lib/libmruby.a(range.o)
 .debug_abbrev  0x0000000000003c00      0x16e /Users/cho45/project/raspberrypi-mruby-bare-metal/mruby/build/arm-eabi-raspberry-pi/lib/libmruby.a(version.o)
 .debug_abbrev  0x0000000000003d6e      0x19a /Users/cho45/project/raspberrypi-mruby-bare-metal/mruby/build/arm-eabi-raspberry-pi/lib/libmruby.a(mrblib.o)
 .debug_abbrev  0x0000000000003f08      0x2d9 /Users/cho45/project/raspberrypi-mruby-bare-metal/mruby/build/arm-eabi-raspberry-pi/lib/libmruby.a(backtrace.o)
 .debug_abbrev  0x00000000000041e1      0x16e /Users/cho45/project/raspberrypi-mruby-bare-metal/mruby/build/arm-eabi-raspberry-pi/lib/libmruby.a(compar.o)
 .debug_abbrev  0x000000000000434f      0x16e /Users/cho45/project/raspberrypi-mruby-bare-metal/mruby/build/arm-eabi-raspberry-pi/lib/libmruby.a(enum.o)
 .debug_abbrev  0x00000000000044bd      0x26f /Users/cho45/project/raspberrypi-mruby-bare-metal/mruby/build/arm-eabi-raspberry-pi/lib/libmruby.a(etc.o)
 .debug_abbrev  0x000000000000472c       0x97 /Users/cho45/arm-cs-tools/arm-none-eabi/lib//libc.a(lib_a-abort.o)
 .debug_abbrev  0x00000000000047c3       0x55 /Users/cho45/arm-cs-tools/arm-none-eabi/lib//libc.a(lib_a-abs.o)
 .debug_abbrev  0x0000000000004818       0x4e /Users/cho45/arm-cs-tools/arm-none-eabi/lib//libc.a(lib_a-ctype_.o)
 .debug_abbrev  0x0000000000004866      0x173 /Users/cho45/arm-cs-tools/arm-none-eabi/lib//libc.a(lib_a-errno.o)
 .debug_abbrev  0x00000000000049d9      0x1ca /Users/cho45/arm-cs-tools/arm-none-eabi/lib//libc.a(lib_a-exit.o)
 .debug_abbrev  0x0000000000004ba3      0x21d /Users/cho45/arm-cs-tools/arm-none-eabi/lib//libc.a(lib_a-fputs.o)
 .debug_abbrev  0x0000000000004dc0      0x274 /Users/cho45/arm-cs-tools/arm-none-eabi/lib//libc.a(lib_a-fread.o)
 .debug_abbrev  0x0000000000005034      0x2d9 /Users/cho45/arm-cs-tools/arm-none-eabi/lib//libc.a(lib_a-fseek.o)
 .debug_abbrev  0x000000000000530d      0x1e2 /Users/cho45/arm-cs-tools/arm-none-eabi/lib//libc.a(lib_a-fstatr.o)
 .debug_abbrev  0x00000000000054ef      0x205 /Users/cho45/arm-cs-tools/arm-none-eabi/lib//libc.a(lib_a-ftell.o)
 .debug_abbrev  0x00000000000056f4      0x22d /Users/cho45/arm-cs-tools/arm-none-eabi/lib//libc.a(lib_a-fvwrite.o)
 .debug_abbrev  0x0000000000005921      0x21e /Users/cho45/arm-cs-tools/arm-none-eabi/lib//libc.a(lib_a-fwrite.o)
 .debug_abbrev  0x0000000000005b3f      0x162 /Users/cho45/arm-cs-tools/arm-none-eabi/lib//libc.a(lib_a-impure.o)
 .debug_abbrev  0x0000000000005ca1      0x1ea /Users/cho45/arm-cs-tools/arm-none-eabi/lib//libc.a(lib_a-makebuf.o)
 .debug_abbrev  0x0000000000005e8b      0x1db /Users/cho45/arm-cs-tools/arm-none-eabi/lib//libc.a(lib_a-malloc.o)
 .debug_abbrev  0x0000000000006066      0x288 /Users/cho45/arm-cs-tools/arm-none-eabi/lib//libc.a(lib_a-mallocr.o)
 .debug_abbrev  0x00000000000062ee       0xad /Users/cho45/arm-cs-tools/arm-none-eabi/lib//libc.a(lib_a-memchr.o)
 .debug_abbrev  0x000000000000639b       0x90 /Users/cho45/arm-cs-tools/arm-none-eabi/lib//libc.a(lib_a-memcmp.o)
 .debug_abbrev  0x000000000000642b       0x8f /Users/cho45/arm-cs-tools/arm-none-eabi/lib//libc.a(lib_a-memcpy.o)
 .debug_abbrev  0x00000000000064ba       0x9e /Users/cho45/arm-cs-tools/arm-none-eabi/lib//libc.a(lib_a-memmove.o)
 .debug_abbrev  0x0000000000006558       0xa6 /Users/cho45/arm-cs-tools/arm-none-eabi/lib//libc.a(lib_a-memset.o)
 .debug_abbrev  0x00000000000065fe      0x17e /Users/cho45/arm-cs-tools/arm-none-eabi/lib//libc.a(lib_a-mlock.o)
 .debug_abbrev  0x000000000000677c      0x20b /Users/cho45/arm-cs-tools/arm-none-eabi/lib//libc.a(lib_a-printf.o)
 .debug_abbrev  0x0000000000006987      0x1bd /Users/cho45/arm-cs-tools/arm-none-eabi/lib//libc.a(lib_a-realloc.o)
 .debug_abbrev  0x0000000000006b44      0x23f /Users/cho45/arm-cs-tools/arm-none-eabi/lib//libc.a(lib_a-reallocr.o)
 .debug_abbrev  0x0000000000006d83      0x272 /Users/cho45/arm-cs-tools/arm-none-eabi/lib//libc.a(lib_a-reent.o)
 .debug_abbrev  0x0000000000006ff5      0x211 /Users/cho45/arm-cs-tools/arm-none-eabi/lib//libc.a(lib_a-refill.o)
 .debug_abbrev  0x0000000000007206       0x71 /Users/cho45/arm-cs-tools/arm-none-eabi/lib//libc.a(lib_a-s_fpclassify.o)
 .debug_abbrev  0x0000000000007277      0x1e1 /Users/cho45/arm-cs-tools/arm-none-eabi/lib//libc.a(lib_a-sbrkr.o)
 .debug_abbrev  0x0000000000007458       0x14 /Users/cho45/arm-cs-tools/arm-none-eabi/lib//libc.a(lib_a-setjmp.o)
 .debug_abbrev  0x000000000000746c      0x2ac /Users/cho45/arm-cs-tools/arm-none-eabi/lib//libc.a(lib_a-signal.o)
 .debug_abbrev  0x0000000000007718      0x1de /Users/cho45/arm-cs-tools/arm-none-eabi/lib//libc.a(lib_a-signalr.o)
 .debug_abbrev  0x00000000000078f6      0x22b /Users/cho45/arm-cs-tools/arm-none-eabi/lib//libc.a(lib_a-stdio.o)
 .debug_abbrev  0x0000000000007b21       0x74 /Users/cho45/arm-cs-tools/arm-none-eabi/lib//libc.a(lib_a-strcmp.o)
 .debug_abbrev  0x0000000000007b95       0x8e /Users/cho45/arm-cs-tools/arm-none-eabi/lib//libc.a(lib_a-strlen.o)
 .debug_abbrev  0x0000000000007c23      0x3a8 /Users/cho45/arm-cs-tools/arm-none-eabi/lib//libc.a(lib_a-strtod.o)
 .debug_abbrev  0x0000000000007fcb      0x1f8 /Users/cho45/arm-cs-tools/arm-none-eabi/lib//libc.a(lib_a-strtoul.o)
 .debug_abbrev  0x00000000000081c3      0x3bd /Users/cho45/arm-cs-tools/arm-none-eabi/lib//libc.a(lib_a-vfprintf.o)
 .debug_abbrev  0x0000000000008580      0x20d /Users/cho45/arm-cs-tools/arm-none-eabi/lib//libc.a(lib_a-vsnprintf.o)
 .debug_abbrev  0x000000000000878d      0x21c /Users/cho45/arm-cs-tools/arm-none-eabi/lib//libc.a(lib_a-wbuf.o)
 .debug_abbrev  0x00000000000089a9      0x1d8 /Users/cho45/arm-cs-tools/arm-none-eabi/lib//libc.a(lib_a-writer.o)
 .debug_abbrev  0x0000000000008b81      0x1d7 /Users/cho45/arm-cs-tools/arm-none-eabi/lib//libc.a(lib_a-wsetup.o)
 .debug_abbrev  0x0000000000008d58      0x275 /Users/cho45/arm-cs-tools/arm-none-eabi/lib//libc.a(lib_a-__call_atexit.o)
 .debug_abbrev  0x0000000000008fcd       0xb7 /Users/cho45/arm-cs-tools/arm-none-eabi/lib//libc.a(lib_a-atexit.o)
 .debug_abbrev  0x0000000000009084      0x1d3 /Users/cho45/arm-cs-tools/arm-none-eabi/lib//libc.a(lib_a-closer.o)
 .debug_abbrev  0x0000000000009257      0x2c4 /Users/cho45/arm-cs-tools/arm-none-eabi/lib//libc.a(lib_a-dtoa.o)
 .debug_abbrev  0x000000000000951b      0x240 /Users/cho45/arm-cs-tools/arm-none-eabi/lib//libc.a(lib_a-fflush.o)
 .debug_abbrev  0x000000000000975b      0x319 /Users/cho45/arm-cs-tools/arm-none-eabi/lib//libc.a(lib_a-findfp.o)
 .debug_abbrev  0x0000000000009a74       0xbc /Users/cho45/arm-cs-tools/arm-none-eabi/lib//libc.a(lib_a-fini.o)
 .debug_abbrev  0x0000000000009b30      0x23c /Users/cho45/arm-cs-tools/arm-none-eabi/lib//libc.a(lib_a-freer.o)
 .debug_abbrev  0x0000000000009d6c      0x236 /Users/cho45/arm-cs-tools/arm-none-eabi/lib//libc.a(lib_a-fwalk.o)
 .debug_abbrev  0x0000000000009fa2      0x36d /Users/cho45/arm-cs-tools/arm-none-eabi/lib//libc.a(lib_a-gdtoa-gethex.o)
 .debug_abbrev  0x000000000000a30f      0x168 /Users/cho45/arm-cs-tools/arm-none-eabi/lib//libc.a(lib_a-gdtoa-hexnan.o)
 .debug_abbrev  0x000000000000a477      0x1d3 /Users/cho45/arm-cs-tools/arm-none-eabi/lib//libc.a(lib_a-isattyr.o)
 .debug_abbrev  0x000000000000a64a      0x2a3 /Users/cho45/arm-cs-tools/arm-none-eabi/lib//libc.a(lib_a-locale.o)
 .debug_abbrev  0x000000000000a8ed      0x1e2 /Users/cho45/arm-cs-tools/arm-none-eabi/lib//libc.a(lib_a-lseekr.o)
 .debug_abbrev  0x000000000000aacf      0x33b /Users/cho45/arm-cs-tools/arm-none-eabi/lib//libc.a(lib_a-mprec.o)
 .debug_abbrev  0x000000000000ae0a      0x1d3 /Users/cho45/arm-cs-tools/arm-none-eabi/lib//libc.a(lib_a-readr.o)
 .debug_abbrev  0x000000000000afdd       0x72 /Users/cho45/arm-cs-tools/arm-none-eabi/lib//libc.a(lib_a-strncmp.o)
 .debug_abbrev  0x000000000000b04f      0x35e /Users/cho45/arm-cs-tools/arm-none-eabi/lib//libc.a(lib_a-svfprintf.o)
 .debug_abbrev  0x000000000000b3ad      0x3d8 /Users/cho45/arm-cs-tools/arm-none-eabi/lib//libc.a(lib_a-vfiprintf.o)
 .debug_abbrev  0x000000000000b785      0x202 /Users/cho45/arm-cs-tools/arm-none-eabi/lib//libc.a(lib_a-__atexit.o)
 .debug_abbrev  0x000000000000b987      0x1f9 /Users/cho45/arm-cs-tools/arm-none-eabi/lib//libc.a(lib_a-callocr.o)
 .debug_abbrev  0x000000000000bb80      0x234 /Users/cho45/arm-cs-tools/arm-none-eabi/lib//libc.a(lib_a-fclose.o)
 .debug_abbrev  0x000000000000bdb4      0x27e /Users/cho45/arm-cs-tools/arm-none-eabi/lib//libc.a(lib_a-fputwc.o)
 .debug_abbrev  0x000000000000c032      0x2f0 /Users/cho45/arm-cs-tools/arm-none-eabi/lib//libc.a(lib_a-svfiprintf.o)
 .debug_abbrev  0x000000000000c322      0x207 /Users/cho45/arm-cs-tools/arm-none-eabi/lib//libc.a(lib_a-wcrtomb.o)
 .debug_abbrev  0x000000000000c529      0x212 /Users/cho45/arm-cs-tools/arm-none-eabi/lib//libc.a(lib_a-wctomb_r.o)
 .debug_abbrev  0x000000000000c73b       0xfc /Users/cho45/arm-cs-tools/arm-none-eabi/lib//libm.a(lib_a-s_ceil.o)
 .debug_abbrev  0x000000000000c837       0xfc /Users/cho45/arm-cs-tools/arm-none-eabi/lib//libm.a(lib_a-s_floor.o)
 .debug_abbrev  0x000000000000c933      0x13c /Users/cho45/arm-cs-tools/arm-none-eabi/lib//libm.a(lib_a-w_fmod.o)
 .debug_abbrev  0x000000000000ca6f      0x156 /Users/cho45/arm-cs-tools/arm-none-eabi/lib//libm.a(lib_a-w_log10.o)
 .debug_abbrev  0x000000000000cbc5      0x14f /Users/cho45/arm-cs-tools/arm-none-eabi/lib//libm.a(lib_a-w_pow.o)
 .debug_abbrev  0x000000000000cd14      0x117 /Users/cho45/arm-cs-tools/arm-none-eabi/lib//libm.a(lib_a-e_fmod.o)
 .debug_abbrev  0x000000000000ce2b      0x121 /Users/cho45/arm-cs-tools/arm-none-eabi/lib//libm.a(lib_a-e_log10.o)
 .debug_abbrev  0x000000000000cf4c      0x1da /Users/cho45/arm-cs-tools/arm-none-eabi/lib//libm.a(lib_a-e_pow.o)
 .debug_abbrev  0x000000000000d126      0x10b /Users/cho45/arm-cs-tools/arm-none-eabi/lib//libm.a(lib_a-e_sqrt.o)
 .debug_abbrev  0x000000000000d231       0xbb /Users/cho45/arm-cs-tools/arm-none-eabi/lib//libm.a(lib_a-s_fabs.o)
 .debug_abbrev  0x000000000000d2ec       0x71 /Users/cho45/arm-cs-tools/arm-none-eabi/lib//libm.a(lib_a-s_finite.o)
 .debug_abbrev  0x000000000000d35d       0x4f /Users/cho45/arm-cs-tools/arm-none-eabi/lib//libm.a(lib_a-s_lib_ver.o)
 .debug_abbrev  0x000000000000d3ac       0x9c /Users/cho45/arm-cs-tools/arm-none-eabi/lib//libm.a(lib_a-s_matherr.o)
 .debug_abbrev  0x000000000000d448       0x74 /Users/cho45/arm-cs-tools/arm-none-eabi/lib//libm.a(lib_a-s_nan.o)
 .debug_abbrev  0x000000000000d4bc      0x11e /Users/cho45/arm-cs-tools/arm-none-eabi/lib//libm.a(lib_a-s_rint.o)
 .debug_abbrev  0x000000000000d5da      0x121 /Users/cho45/arm-cs-tools/arm-none-eabi/lib//libm.a(lib_a-s_scalbn.o)
 .debug_abbrev  0x000000000000d6fb      0x121 /Users/cho45/arm-cs-tools/arm-none-eabi/lib//libm.a(lib_a-e_log.o)
 .debug_abbrev  0x000000000000d81c       0xfe /Users/cho45/arm-cs-tools/arm-none-eabi/lib//libm.a(lib_a-s_copysign.o)
 .debug_abbrev  0x000000000000d91a       0x14 /Users/cho45/arm-cs-tools/lib/gcc/arm-none-eabi/4.7.3/libgcc.a(_udivsi3.o)
 .debug_abbrev  0x000000000000d92e       0x14 /Users/cho45/arm-cs-tools/lib/gcc/arm-none-eabi/4.7.3/libgcc.a(_divsi3.o)
 .debug_abbrev  0x000000000000d942       0x14 /Users/cho45/arm-cs-tools/lib/gcc/arm-none-eabi/4.7.3/libgcc.a(_dvmd_tls.o)
 .debug_abbrev  0x000000000000d956       0x14 /Users/cho45/arm-cs-tools/lib/gcc/arm-none-eabi/4.7.3/libgcc.a(_arm_addsubdf3.o)
 .debug_abbrev  0x000000000000d96a       0x14 /Users/cho45/arm-cs-tools/lib/gcc/arm-none-eabi/4.7.3/libgcc.a(_arm_muldivdf3.o)
 .debug_abbrev  0x000000000000d97e       0x14 /Users/cho45/arm-cs-tools/lib/gcc/arm-none-eabi/4.7.3/libgcc.a(_arm_cmpdf2.o)
 .debug_abbrev  0x000000000000d992       0x14 /Users/cho45/arm-cs-tools/lib/gcc/arm-none-eabi/4.7.3/libgcc.a(_arm_fixdfsi.o)
 .debug_abbrev  0x000000000000d9a6       0x14 /Users/cho45/arm-cs-tools/lib/gcc/arm-none-eabi/4.7.3/libgcc.a(_arm_fixunsdfsi.o)
 .debug_abbrev  0x000000000000d9ba       0x14 /Users/cho45/arm-cs-tools/lib/gcc/arm-none-eabi/4.7.3/libgcc.a(_arm_truncdfsf2.o)
 .debug_abbrev  0x000000000000d9ce       0x14 /Users/cho45/arm-cs-tools/lib/gcc/arm-none-eabi/4.7.3/libgcc.a(_arm_cmpsf2.o)
 .debug_abbrev  0x000000000000d9e2       0x14 /Users/cho45/arm-cs-tools/lib/gcc/arm-none-eabi/4.7.3/libgcc.a(_aeabi_uldivmod.o)
 .debug_abbrev  0x000000000000d9f6       0xb7 /Users/cho45/arm-cs-tools/lib/gcc/arm-none-eabi/4.7.3/libgcc.a(bpabi.o)
 .debug_abbrev  0x000000000000daad      0x165 /Users/cho45/arm-cs-tools/lib/gcc/arm-none-eabi/4.7.3/libgcc.a(_divdi3.o)
 .debug_abbrev  0x000000000000dc12      0x154 /Users/cho45/arm-cs-tools/lib/gcc/arm-none-eabi/4.7.3/libgcc.a(_udivdi3.o)
 .debug_abbrev  0x000000000000dd66       0x14 /Users/cho45/arm-cs-tools/lib/gcc/arm-none-eabi/4.7.3/libgcc.a(_clzsi2.o)

.debug_loc      0x0000000000000000    0x1d496
 .debug_loc     0x0000000000000000       0x58 main.o
 .debug_loc     0x0000000000000058      0x3a8 syscalls.o
 .debug_loc     0x0000000000000400      0x4a4 /Users/cho45/project/raspberrypi-mruby-bare-metal/mruby/build/arm-eabi-raspberry-pi/lib/libmruby.a(load.o)
 .debug_loc     0x00000000000008a4      0x2f0 /Users/cho45/project/raspberrypi-mruby-bare-metal/mruby/build/arm-eabi-raspberry-pi/lib/libmruby.a(proc.o)
 .debug_loc     0x0000000000000b94      0x2ac /Users/cho45/project/raspberrypi-mruby-bare-metal/mruby/build/arm-eabi-raspberry-pi/lib/libmruby.a(state.o)
 .debug_loc     0x0000000000000e40     0x12bc /Users/cho45/project/raspberrypi-mruby-bare-metal/mruby/build/arm-eabi-raspberry-pi/lib/libmruby.a(string.o)
 .debug_loc     0x00000000000020fc      0x6dc /Users/cho45/project/raspberrypi-mruby-bare-metal/mruby/build/arm-eabi-raspberry-pi/lib/libmruby.a(symbol.o)
 .debug_loc     0x00000000000027d8      0xf60 /Users/cho45/project/raspberrypi-mruby-bare-metal/mruby/build/arm-eabi-raspberry-pi/lib/libmruby.a(variable.o)
 .debug_loc     0x0000000000003738      0x57c /Users/cho45/project/raspberrypi-mruby-bare-metal/mruby/build/arm-eabi-raspberry-pi/lib/libmruby.a(vm.o)
 .debug_loc     0x0000000000003cb4      0xd24 /Users/cho45/project/raspberrypi-mruby-bare-metal/mruby/build/arm-eabi-raspberry-pi/lib/libmruby.a(array.o)
 .debug_loc     0x00000000000049d8     0x1604 /Users/cho45/project/raspberrypi-mruby-bare-metal/mruby/build/arm-eabi-raspberry-pi/lib/libmruby.a(class.o)
 .debug_loc     0x0000000000005fdc       0x2c /Users/cho45/project/raspberrypi-mruby-bare-metal/mruby/build/arm-eabi-raspberry-pi/lib/libmruby.a(crc.o)
 .debug_loc     0x0000000000006008      0x134 /Users/cho45/project/raspberrypi-mruby-bare-metal/mruby/build/arm-eabi-raspberry-pi/lib/libmruby.a(debug.o)
 .debug_loc     0x000000000000613c      0x56c /Users/cho45/project/raspberrypi-mruby-bare-metal/mruby/build/arm-eabi-raspberry-pi/lib/libmruby.a(error.o)
 .debug_loc     0x00000000000066a8      0x9ec /Users/cho45/project/raspberrypi-mruby-bare-metal/mruby/build/arm-eabi-raspberry-pi/lib/libmruby.a(gc.o)
 .debug_loc     0x0000000000007094      0xc24 /Users/cho45/project/raspberrypi-mruby-bare-metal/mruby/build/arm-eabi-raspberry-pi/lib/libmruby.a(hash.o)
 .debug_loc     0x0000000000007cb8       0x58 /Users/cho45/project/raspberrypi-mruby-bare-metal/mruby/build/arm-eabi-raspberry-pi/lib/libmruby.a(init.o)
 .debug_loc     0x0000000000007d10      0xcbc /Users/cho45/project/raspberrypi-mruby-bare-metal/mruby/build/arm-eabi-raspberry-pi/lib/libmruby.a(kernel.o)
 .debug_loc     0x00000000000089cc      0xbbc /Users/cho45/project/raspberrypi-mruby-bare-metal/mruby/build/arm-eabi-raspberry-pi/lib/libmruby.a(numeric.o)
 .debug_loc     0x0000000000009588      0x7c4 /Users/cho45/project/raspberrypi-mruby-bare-metal/mruby/build/arm-eabi-raspberry-pi/lib/libmruby.a(object.o)
 .debug_loc     0x0000000000009d4c      0x120 /Users/cho45/project/raspberrypi-mruby-bare-metal/mruby/build/arm-eabi-raspberry-pi/lib/libmruby.a(print.o)
 .debug_loc     0x0000000000009e6c      0x4cc /Users/cho45/project/raspberrypi-mruby-bare-metal/mruby/build/arm-eabi-raspberry-pi/lib/libmruby.a(range.o)
 .debug_loc     0x000000000000a338       0x2c /Users/cho45/project/raspberrypi-mruby-bare-metal/mruby/build/arm-eabi-raspberry-pi/lib/libmruby.a(version.o)
 .debug_loc     0x000000000000a364       0x2c /Users/cho45/project/raspberrypi-mruby-bare-metal/mruby/build/arm-eabi-raspberry-pi/lib/libmruby.a(mrblib.o)
 .debug_loc     0x000000000000a390      0x12c /Users/cho45/project/raspberrypi-mruby-bare-metal/mruby/build/arm-eabi-raspberry-pi/lib/libmruby.a(backtrace.o)
 .debug_loc     0x000000000000a4bc       0x2c /Users/cho45/project/raspberrypi-mruby-bare-metal/mruby/build/arm-eabi-raspberry-pi/lib/libmruby.a(compar.o)
 .debug_loc     0x000000000000a4e8       0x2c /Users/cho45/project/raspberrypi-mruby-bare-metal/mruby/build/arm-eabi-raspberry-pi/lib/libmruby.a(enum.o)
 .debug_loc     0x000000000000a514      0x1c8 /Users/cho45/project/raspberrypi-mruby-bare-metal/mruby/build/arm-eabi-raspberry-pi/lib/libmruby.a(etc.o)
 .debug_loc     0x000000000000a6dc       0x20 /Users/cho45/arm-cs-tools/arm-none-eabi/lib//libc.a(lib_a-abort.o)
 .debug_loc     0x000000000000a6fc       0x21 /Users/cho45/arm-cs-tools/arm-none-eabi/lib//libc.a(lib_a-abs.o)
 .debug_loc     0x000000000000a71d       0x3e /Users/cho45/arm-cs-tools/arm-none-eabi/lib//libc.a(lib_a-exit.o)
 .debug_loc     0x000000000000a75b       0xe1 /Users/cho45/arm-cs-tools/arm-none-eabi/lib//libc.a(lib_a-fputs.o)
 .debug_loc     0x000000000000a83c      0x21c /Users/cho45/arm-cs-tools/arm-none-eabi/lib//libc.a(lib_a-fread.o)
 .debug_loc     0x000000000000aa58      0x28e /Users/cho45/arm-cs-tools/arm-none-eabi/lib//libc.a(lib_a-fseek.o)
 .debug_loc     0x000000000000ace6       0x8b /Users/cho45/arm-cs-tools/arm-none-eabi/lib//libc.a(lib_a-fstatr.o)
 .debug_loc     0x000000000000ad71       0x9b /Users/cho45/arm-cs-tools/arm-none-eabi/lib//libc.a(lib_a-ftell.o)
 .debug_loc     0x000000000000ae0c      0x490 /Users/cho45/arm-cs-tools/arm-none-eabi/lib//libc.a(lib_a-fvwrite.o)
 .debug_loc     0x000000000000b29c      0x178 /Users/cho45/arm-cs-tools/arm-none-eabi/lib//libc.a(lib_a-fwrite.o)
 .debug_loc     0x000000000000b414      0x10a /Users/cho45/arm-cs-tools/arm-none-eabi/lib//libc.a(lib_a-makebuf.o)
 .debug_loc     0x000000000000b51e       0x98 /Users/cho45/arm-cs-tools/arm-none-eabi/lib//libc.a(lib_a-malloc.o)
 .debug_loc     0x000000000000b5b6      0x7fa /Users/cho45/arm-cs-tools/arm-none-eabi/lib//libc.a(lib_a-mallocr.o)
 .debug_loc     0x000000000000bdb0       0x81 /Users/cho45/arm-cs-tools/arm-none-eabi/lib//libc.a(lib_a-memchr.o)
 .debug_loc     0x000000000000be31       0x93 /Users/cho45/arm-cs-tools/arm-none-eabi/lib//libc.a(lib_a-memcmp.o)
 .debug_loc     0x000000000000bec4       0x47 /Users/cho45/arm-cs-tools/arm-none-eabi/lib//libc.a(lib_a-memcpy.o)
 .debug_loc     0x000000000000bf0b       0xd2 /Users/cho45/arm-cs-tools/arm-none-eabi/lib//libc.a(lib_a-memmove.o)
 .debug_loc     0x000000000000bfdd       0x3f /Users/cho45/arm-cs-tools/arm-none-eabi/lib//libc.a(lib_a-memset.o)
 .debug_loc     0x000000000000c01c       0x8c /Users/cho45/arm-cs-tools/arm-none-eabi/lib//libc.a(lib_a-printf.o)
 .debug_loc     0x000000000000c0a8       0x78 /Users/cho45/arm-cs-tools/arm-none-eabi/lib//libc.a(lib_a-realloc.o)
 .debug_loc     0x000000000000c120      0xb12 /Users/cho45/arm-cs-tools/arm-none-eabi/lib//libc.a(lib_a-reallocr.o)
 .debug_loc     0x000000000000cc32      0x165 /Users/cho45/arm-cs-tools/arm-none-eabi/lib//libc.a(lib_a-reent.o)
 .debug_loc     0x000000000000cd97       0x9d /Users/cho45/arm-cs-tools/arm-none-eabi/lib//libc.a(lib_a-refill.o)
 .debug_loc     0x000000000000ce34       0x84 /Users/cho45/arm-cs-tools/arm-none-eabi/lib//libc.a(lib_a-s_fpclassify.o)
 .debug_loc     0x000000000000ceb8       0x5f /Users/cho45/arm-cs-tools/arm-none-eabi/lib//libc.a(lib_a-sbrkr.o)
 .debug_loc     0x000000000000cf17      0x3c0 /Users/cho45/arm-cs-tools/arm-none-eabi/lib//libc.a(lib_a-signal.o)
 .debug_loc     0x000000000000d2d7       0xcc /Users/cho45/arm-cs-tools/arm-none-eabi/lib//libc.a(lib_a-signalr.o)
 .debug_loc     0x000000000000d3a3      0x25d /Users/cho45/arm-cs-tools/arm-none-eabi/lib//libc.a(lib_a-stdio.o)
 .debug_loc     0x000000000000d600       0x21 /Users/cho45/arm-cs-tools/arm-none-eabi/lib//libc.a(lib_a-strcmp.o)
 .debug_loc     0x000000000000d621       0x21 /Users/cho45/arm-cs-tools/arm-none-eabi/lib//libc.a(lib_a-strlen.o)
 .debug_loc     0x000000000000d642     0x15de /Users/cho45/arm-cs-tools/arm-none-eabi/lib//libc.a(lib_a-strtod.o)
 .debug_loc     0x000000000000ec20      0x34b /Users/cho45/arm-cs-tools/arm-none-eabi/lib//libc.a(lib_a-strtoul.o)
 .debug_loc     0x000000000000ef6b     0x1671 /Users/cho45/arm-cs-tools/arm-none-eabi/lib//libc.a(lib_a-vfprintf.o)
 .debug_loc     0x00000000000105dc      0x173 /Users/cho45/arm-cs-tools/arm-none-eabi/lib//libc.a(lib_a-vsnprintf.o)
 .debug_loc     0x000000000001074f      0x125 /Users/cho45/arm-cs-tools/arm-none-eabi/lib//libc.a(lib_a-wbuf.o)
 .debug_loc     0x0000000000010874       0xb7 /Users/cho45/arm-cs-tools/arm-none-eabi/lib//libc.a(lib_a-writer.o)
 .debug_loc     0x000000000001092b       0x5c /Users/cho45/arm-cs-tools/arm-none-eabi/lib//libc.a(lib_a-wsetup.o)
 .debug_loc     0x0000000000010987      0x122 /Users/cho45/arm-cs-tools/arm-none-eabi/lib//libc.a(lib_a-__call_atexit.o)
 .debug_loc     0x0000000000010aa9       0x4c /Users/cho45/arm-cs-tools/arm-none-eabi/lib//libc.a(lib_a-atexit.o)
 .debug_loc     0x0000000000010af5       0x5f /Users/cho45/arm-cs-tools/arm-none-eabi/lib//libc.a(lib_a-closer.o)
 .debug_loc     0x0000000000010b54     0x12da /Users/cho45/arm-cs-tools/arm-none-eabi/lib//libc.a(lib_a-dtoa.o)
 .debug_loc     0x0000000000011e2e      0x1a1 /Users/cho45/arm-cs-tools/arm-none-eabi/lib//libc.a(lib_a-fflush.o)
 .debug_loc     0x0000000000011fcf      0x29b /Users/cho45/arm-cs-tools/arm-none-eabi/lib//libc.a(lib_a-findfp.o)
 .debug_loc     0x000000000001226a       0x33 /Users/cho45/arm-cs-tools/arm-none-eabi/lib//libc.a(lib_a-fini.o)
 .debug_loc     0x000000000001229d      0x3bf /Users/cho45/arm-cs-tools/arm-none-eabi/lib//libc.a(lib_a-freer.o)
 .debug_loc     0x000000000001265c      0x1ab /Users/cho45/arm-cs-tools/arm-none-eabi/lib//libc.a(lib_a-fwalk.o)
 .debug_loc     0x0000000000012807      0x93e /Users/cho45/arm-cs-tools/arm-none-eabi/lib//libc.a(lib_a-gdtoa-gethex.o)
 .debug_loc     0x0000000000013145      0x3d7 /Users/cho45/arm-cs-tools/arm-none-eabi/lib//libc.a(lib_a-gdtoa-hexnan.o)
 .debug_loc     0x000000000001351c       0x5f /Users/cho45/arm-cs-tools/arm-none-eabi/lib//libc.a(lib_a-isattyr.o)
 .debug_loc     0x000000000001357b      0x141 /Users/cho45/arm-cs-tools/arm-none-eabi/lib//libc.a(lib_a-locale.o)
 .debug_loc     0x00000000000136bc       0xb7 /Users/cho45/arm-cs-tools/arm-none-eabi/lib//libc.a(lib_a-lseekr.o)
 .debug_loc     0x0000000000013773     0x1e95 /Users/cho45/arm-cs-tools/arm-none-eabi/lib//libc.a(lib_a-mprec.o)
 .debug_loc     0x0000000000015608       0xb7 /Users/cho45/arm-cs-tools/arm-none-eabi/lib//libc.a(lib_a-readr.o)
 .debug_loc     0x00000000000156bf       0xb4 /Users/cho45/arm-cs-tools/arm-none-eabi/lib//libc.a(lib_a-strncmp.o)
 .debug_loc     0x0000000000015773     0x14ae /Users/cho45/arm-cs-tools/arm-none-eabi/lib//libc.a(lib_a-svfprintf.o)
 .debug_loc     0x0000000000016c21      0xfbb /Users/cho45/arm-cs-tools/arm-none-eabi/lib//libc.a(lib_a-vfiprintf.o)
 .debug_loc     0x0000000000017bdc      0x120 /Users/cho45/arm-cs-tools/arm-none-eabi/lib//libc.a(lib_a-__atexit.o)
 .debug_loc     0x0000000000017cfc      0x1e4 /Users/cho45/arm-cs-tools/arm-none-eabi/lib//libc.a(lib_a-callocr.o)
 .debug_loc     0x0000000000017ee0       0xa6 /Users/cho45/arm-cs-tools/arm-none-eabi/lib//libc.a(lib_a-fclose.o)
 .debug_loc     0x0000000000017f86      0x1a5 /Users/cho45/arm-cs-tools/arm-none-eabi/lib//libc.a(lib_a-fputwc.o)
 .debug_loc     0x000000000001812b      0xf28 /Users/cho45/arm-cs-tools/arm-none-eabi/lib//libc.a(lib_a-svfiprintf.o)
 .debug_loc     0x0000000000019053      0x19b /Users/cho45/arm-cs-tools/arm-none-eabi/lib//libc.a(lib_a-wcrtomb.o)
 .debug_loc     0x00000000000191ee       0xfe /Users/cho45/arm-cs-tools/arm-none-eabi/lib//libc.a(lib_a-wctomb_r.o)
 .debug_loc     0x00000000000192ec      0x1f2 /Users/cho45/arm-cs-tools/arm-none-eabi/lib//libm.a(lib_a-s_ceil.o)
 .debug_loc     0x00000000000194de      0x1dc /Users/cho45/arm-cs-tools/arm-none-eabi/lib//libm.a(lib_a-s_floor.o)
 .debug_loc     0x00000000000196ba       0x95 /Users/cho45/arm-cs-tools/arm-none-eabi/lib//libm.a(lib_a-w_fmod.o)
 .debug_loc     0x000000000001974f       0x6d /Users/cho45/arm-cs-tools/arm-none-eabi/lib//libm.a(lib_a-w_log10.o)
 .debug_loc     0x00000000000197bc       0xe9 /Users/cho45/arm-cs-tools/arm-none-eabi/lib//libm.a(lib_a-w_pow.o)
 .debug_loc     0x00000000000198a5      0x4cb /Users/cho45/arm-cs-tools/arm-none-eabi/lib//libm.a(lib_a-e_fmod.o)
 .debug_loc     0x0000000000019d70      0x29d /Users/cho45/arm-cs-tools/arm-none-eabi/lib//libm.a(lib_a-e_log10.o)
 .debug_loc     0x000000000001a00d      0xe31 /Users/cho45/arm-cs-tools/arm-none-eabi/lib//libm.a(lib_a-e_pow.o)
 .debug_loc     0x000000000001ae3e      0x2ef /Users/cho45/arm-cs-tools/arm-none-eabi/lib//libm.a(lib_a-e_sqrt.o)
 .debug_loc     0x000000000001b12d       0x3b /Users/cho45/arm-cs-tools/arm-none-eabi/lib//libm.a(lib_a-s_finite.o)
 .debug_loc     0x000000000001b168       0x21 /Users/cho45/arm-cs-tools/arm-none-eabi/lib//libm.a(lib_a-s_matherr.o)
 .debug_loc     0x000000000001b189       0x21 /Users/cho45/arm-cs-tools/arm-none-eabi/lib//libm.a(lib_a-s_nan.o)
 .debug_loc     0x000000000001b1aa      0x417 /Users/cho45/arm-cs-tools/arm-none-eabi/lib//libm.a(lib_a-s_rint.o)
 .debug_loc     0x000000000001b5c1      0x192 /Users/cho45/arm-cs-tools/arm-none-eabi/lib//libm.a(lib_a-s_scalbn.o)
 .debug_loc     0x000000000001b753      0x47b /Users/cho45/arm-cs-tools/arm-none-eabi/lib//libm.a(lib_a-e_log.o)
 .debug_loc     0x000000000001bbce       0x60 /Users/cho45/arm-cs-tools/arm-none-eabi/lib//libm.a(lib_a-s_copysign.o)
 .debug_loc     0x000000000001bc2e       0xe0 /Users/cho45/arm-cs-tools/lib/gcc/arm-none-eabi/4.7.3/libgcc.a(bpabi.o)
 .debug_loc     0x000000000001bd0e      0xb3a /Users/cho45/arm-cs-tools/lib/gcc/arm-none-eabi/4.7.3/libgcc.a(_divdi3.o)
 .debug_loc     0x000000000001c848      0xc4e /Users/cho45/arm-cs-tools/lib/gcc/arm-none-eabi/4.7.3/libgcc.a(_udivdi3.o)

.debug_aranges  0x0000000000000000     0x12a8
 .debug_aranges
                0x0000000000000000       0x20 main.o
 .debug_aranges
                0x0000000000000020       0x20 syscalls.o
 .debug_aranges
                0x0000000000000040       0x20 /Users/cho45/project/raspberrypi-mruby-bare-metal/mruby/build/arm-eabi-raspberry-pi/lib/libmruby.a(load.o)
 .debug_aranges
                0x0000000000000060       0x20 /Users/cho45/project/raspberrypi-mruby-bare-metal/mruby/build/arm-eabi-raspberry-pi/lib/libmruby.a(proc.o)
 .debug_aranges
                0x0000000000000080       0x20 /Users/cho45/project/raspberrypi-mruby-bare-metal/mruby/build/arm-eabi-raspberry-pi/lib/libmruby.a(state.o)
 .debug_aranges
                0x00000000000000a0       0x20 /Users/cho45/project/raspberrypi-mruby-bare-metal/mruby/build/arm-eabi-raspberry-pi/lib/libmruby.a(string.o)
 .debug_aranges
                0x00000000000000c0       0x20 /Users/cho45/project/raspberrypi-mruby-bare-metal/mruby/build/arm-eabi-raspberry-pi/lib/libmruby.a(symbol.o)
 .debug_aranges
                0x00000000000000e0       0x20 /Users/cho45/project/raspberrypi-mruby-bare-metal/mruby/build/arm-eabi-raspberry-pi/lib/libmruby.a(variable.o)
 .debug_aranges
                0x0000000000000100       0x20 /Users/cho45/project/raspberrypi-mruby-bare-metal/mruby/build/arm-eabi-raspberry-pi/lib/libmruby.a(vm.o)
 .debug_aranges
                0x0000000000000120       0x20 /Users/cho45/project/raspberrypi-mruby-bare-metal/mruby/build/arm-eabi-raspberry-pi/lib/libmruby.a(array.o)
 .debug_aranges
                0x0000000000000140       0x20 /Users/cho45/project/raspberrypi-mruby-bare-metal/mruby/build/arm-eabi-raspberry-pi/lib/libmruby.a(class.o)
 .debug_aranges
                0x0000000000000160       0x20 /Users/cho45/project/raspberrypi-mruby-bare-metal/mruby/build/arm-eabi-raspberry-pi/lib/libmruby.a(crc.o)
 .debug_aranges
                0x0000000000000180       0x20 /Users/cho45/project/raspberrypi-mruby-bare-metal/mruby/build/arm-eabi-raspberry-pi/lib/libmruby.a(debug.o)
 .debug_aranges
                0x00000000000001a0       0x20 /Users/cho45/project/raspberrypi-mruby-bare-metal/mruby/build/arm-eabi-raspberry-pi/lib/libmruby.a(error.o)
 .debug_aranges
                0x00000000000001c0       0x20 /Users/cho45/project/raspberrypi-mruby-bare-metal/mruby/build/arm-eabi-raspberry-pi/lib/libmruby.a(gc.o)
 .debug_aranges
                0x00000000000001e0       0x20 /Users/cho45/project/raspberrypi-mruby-bare-metal/mruby/build/arm-eabi-raspberry-pi/lib/libmruby.a(hash.o)
 .debug_aranges
                0x0000000000000200       0x20 /Users/cho45/project/raspberrypi-mruby-bare-metal/mruby/build/arm-eabi-raspberry-pi/lib/libmruby.a(init.o)
 .debug_aranges
                0x0000000000000220       0x20 /Users/cho45/project/raspberrypi-mruby-bare-metal/mruby/build/arm-eabi-raspberry-pi/lib/libmruby.a(kernel.o)
 .debug_aranges
                0x0000000000000240       0x20 /Users/cho45/project/raspberrypi-mruby-bare-metal/mruby/build/arm-eabi-raspberry-pi/lib/libmruby.a(numeric.o)
 .debug_aranges
                0x0000000000000260       0x20 /Users/cho45/project/raspberrypi-mruby-bare-metal/mruby/build/arm-eabi-raspberry-pi/lib/libmruby.a(object.o)
 .debug_aranges
                0x0000000000000280       0x20 /Users/cho45/project/raspberrypi-mruby-bare-metal/mruby/build/arm-eabi-raspberry-pi/lib/libmruby.a(print.o)
 .debug_aranges
                0x00000000000002a0       0x20 /Users/cho45/project/raspberrypi-mruby-bare-metal/mruby/build/arm-eabi-raspberry-pi/lib/libmruby.a(range.o)
 .debug_aranges
                0x00000000000002c0       0x20 /Users/cho45/project/raspberrypi-mruby-bare-metal/mruby/build/arm-eabi-raspberry-pi/lib/libmruby.a(version.o)
 .debug_aranges
                0x00000000000002e0       0x20 /Users/cho45/project/raspberrypi-mruby-bare-metal/mruby/build/arm-eabi-raspberry-pi/lib/libmruby.a(mrblib.o)
 .debug_aranges
                0x0000000000000300       0x20 /Users/cho45/project/raspberrypi-mruby-bare-metal/mruby/build/arm-eabi-raspberry-pi/lib/libmruby.a(backtrace.o)
 .debug_aranges
                0x0000000000000320       0x20 /Users/cho45/project/raspberrypi-mruby-bare-metal/mruby/build/arm-eabi-raspberry-pi/lib/libmruby.a(compar.o)
 .debug_aranges
                0x0000000000000340       0x20 /Users/cho45/project/raspberrypi-mruby-bare-metal/mruby/build/arm-eabi-raspberry-pi/lib/libmruby.a(enum.o)
 .debug_aranges
                0x0000000000000360       0x20 /Users/cho45/project/raspberrypi-mruby-bare-metal/mruby/build/arm-eabi-raspberry-pi/lib/libmruby.a(etc.o)
 .debug_aranges
                0x0000000000000380       0x20 /Users/cho45/arm-cs-tools/arm-none-eabi/lib//libc.a(lib_a-abort.o)
 .debug_aranges
                0x00000000000003a0       0x20 /Users/cho45/arm-cs-tools/arm-none-eabi/lib//libc.a(lib_a-abs.o)
 .debug_aranges
                0x00000000000003c0       0x18 /Users/cho45/arm-cs-tools/arm-none-eabi/lib//libc.a(lib_a-ctype_.o)
 .debug_aranges
                0x00000000000003d8       0x20 /Users/cho45/arm-cs-tools/arm-none-eabi/lib//libc.a(lib_a-errno.o)
 .debug_aranges
                0x00000000000003f8       0x20 /Users/cho45/arm-cs-tools/arm-none-eabi/lib//libc.a(lib_a-exit.o)
 .debug_aranges
                0x0000000000000418       0x28 /Users/cho45/arm-cs-tools/arm-none-eabi/lib//libc.a(lib_a-fputs.o)
 .debug_aranges
                0x0000000000000440       0x28 /Users/cho45/arm-cs-tools/arm-none-eabi/lib//libc.a(lib_a-fread.o)
 .debug_aranges
                0x0000000000000468       0x28 /Users/cho45/arm-cs-tools/arm-none-eabi/lib//libc.a(lib_a-fseek.o)
 .debug_aranges
                0x0000000000000490       0x20 /Users/cho45/arm-cs-tools/arm-none-eabi/lib//libc.a(lib_a-fstatr.o)
 .debug_aranges
                0x00000000000004b0       0x28 /Users/cho45/arm-cs-tools/arm-none-eabi/lib//libc.a(lib_a-ftell.o)
 .debug_aranges
                0x00000000000004d8       0x20 /Users/cho45/arm-cs-tools/arm-none-eabi/lib//libc.a(lib_a-fvwrite.o)
 .debug_aranges
                0x00000000000004f8       0x28 /Users/cho45/arm-cs-tools/arm-none-eabi/lib//libc.a(lib_a-fwrite.o)
 .debug_aranges
                0x0000000000000520       0x18 /Users/cho45/arm-cs-tools/arm-none-eabi/lib//libc.a(lib_a-impure.o)
 .debug_aranges
                0x0000000000000538       0x20 /Users/cho45/arm-cs-tools/arm-none-eabi/lib//libc.a(lib_a-makebuf.o)
 .debug_aranges
                0x0000000000000558       0x28 /Users/cho45/arm-cs-tools/arm-none-eabi/lib//libc.a(lib_a-malloc.o)
 .debug_aranges
                0x0000000000000580       0x20 /Users/cho45/arm-cs-tools/arm-none-eabi/lib//libc.a(lib_a-mallocr.o)
 .debug_aranges
                0x00000000000005a0       0x20 /Users/cho45/arm-cs-tools/arm-none-eabi/lib//libc.a(lib_a-memchr.o)
 .debug_aranges
                0x00000000000005c0       0x20 /Users/cho45/arm-cs-tools/arm-none-eabi/lib//libc.a(lib_a-memcmp.o)
 .debug_aranges
                0x00000000000005e0       0x20 /Users/cho45/arm-cs-tools/arm-none-eabi/lib//libc.a(lib_a-memcpy.o)
 .debug_aranges
                0x0000000000000600       0x20 /Users/cho45/arm-cs-tools/arm-none-eabi/lib//libc.a(lib_a-memmove.o)
 .debug_aranges
                0x0000000000000620       0x20 /Users/cho45/arm-cs-tools/arm-none-eabi/lib//libc.a(lib_a-memset.o)
 .debug_aranges
                0x0000000000000640       0x28 /Users/cho45/arm-cs-tools/arm-none-eabi/lib//libc.a(lib_a-mlock.o)
 .debug_aranges
                0x0000000000000668       0x28 /Users/cho45/arm-cs-tools/arm-none-eabi/lib//libc.a(lib_a-printf.o)
 .debug_aranges
                0x0000000000000690       0x20 /Users/cho45/arm-cs-tools/arm-none-eabi/lib//libc.a(lib_a-realloc.o)
 .debug_aranges
                0x00000000000006b0       0x20 /Users/cho45/arm-cs-tools/arm-none-eabi/lib//libc.a(lib_a-reallocr.o)
 .debug_aranges
                0x00000000000006d0       0x30 /Users/cho45/arm-cs-tools/arm-none-eabi/lib//libc.a(lib_a-reent.o)
 .debug_aranges
                0x0000000000000700       0x28 /Users/cho45/arm-cs-tools/arm-none-eabi/lib//libc.a(lib_a-refill.o)
 .debug_aranges
                0x0000000000000728       0x20 /Users/cho45/arm-cs-tools/arm-none-eabi/lib//libc.a(lib_a-s_fpclassify.o)
 .debug_aranges
                0x0000000000000748       0x20 /Users/cho45/arm-cs-tools/arm-none-eabi/lib//libc.a(lib_a-sbrkr.o)
 .debug_aranges
                0x0000000000000768       0x20 /Users/cho45/arm-cs-tools/arm-none-eabi/lib//libc.a(lib_a-setjmp.o)
 .debug_aranges
                0x0000000000000788       0x58 /Users/cho45/arm-cs-tools/arm-none-eabi/lib//libc.a(lib_a-signal.o)
 .debug_aranges
                0x00000000000007e0       0x28 /Users/cho45/arm-cs-tools/arm-none-eabi/lib//libc.a(lib_a-signalr.o)
 .debug_aranges
                0x0000000000000808       0x40 /Users/cho45/arm-cs-tools/arm-none-eabi/lib//libc.a(lib_a-stdio.o)
 .debug_aranges
                0x0000000000000848       0x20 /Users/cho45/arm-cs-tools/arm-none-eabi/lib//libc.a(lib_a-strcmp.o)
 .debug_aranges
                0x0000000000000868       0x20 /Users/cho45/arm-cs-tools/arm-none-eabi/lib//libc.a(lib_a-strlen.o)
 .debug_aranges
                0x0000000000000888       0x38 /Users/cho45/arm-cs-tools/arm-none-eabi/lib//libc.a(lib_a-strtod.o)
 .debug_aranges
                0x00000000000008c0       0x28 /Users/cho45/arm-cs-tools/arm-none-eabi/lib//libc.a(lib_a-strtoul.o)
 .debug_aranges
                0x00000000000008e8       0x28 /Users/cho45/arm-cs-tools/arm-none-eabi/lib//libc.a(lib_a-vfprintf.o)
 .debug_aranges
                0x0000000000000910       0x28 /Users/cho45/arm-cs-tools/arm-none-eabi/lib//libc.a(lib_a-vsnprintf.o)
 .debug_aranges
                0x0000000000000938       0x28 /Users/cho45/arm-cs-tools/arm-none-eabi/lib//libc.a(lib_a-wbuf.o)
 .debug_aranges
                0x0000000000000960       0x20 /Users/cho45/arm-cs-tools/arm-none-eabi/lib//libc.a(lib_a-writer.o)
 .debug_aranges
                0x0000000000000980       0x20 /Users/cho45/arm-cs-tools/arm-none-eabi/lib//libc.a(lib_a-wsetup.o)
 .debug_aranges
                0x00000000000009a0       0x28 /Users/cho45/arm-cs-tools/arm-none-eabi/lib//libc.a(lib_a-__call_atexit.o)
 .debug_aranges
                0x00000000000009c8       0x20 /Users/cho45/arm-cs-tools/arm-none-eabi/lib//libc.a(lib_a-atexit.o)
 .debug_aranges
                0x00000000000009e8       0x20 /Users/cho45/arm-cs-tools/arm-none-eabi/lib//libc.a(lib_a-closer.o)
 .debug_aranges
                0x0000000000000a08       0x28 /Users/cho45/arm-cs-tools/arm-none-eabi/lib//libc.a(lib_a-dtoa.o)
 .debug_aranges
                0x0000000000000a30       0x28 /Users/cho45/arm-cs-tools/arm-none-eabi/lib//libc.a(lib_a-fflush.o)
 .debug_aranges
                0x0000000000000a58       0x88 /Users/cho45/arm-cs-tools/arm-none-eabi/lib//libc.a(lib_a-findfp.o)
 .debug_aranges
                0x0000000000000ae0       0x20 /Users/cho45/arm-cs-tools/arm-none-eabi/lib//libc.a(lib_a-fini.o)
 .debug_aranges
                0x0000000000000b00       0x28 /Users/cho45/arm-cs-tools/arm-none-eabi/lib//libc.a(lib_a-freer.o)
 .debug_aranges
                0x0000000000000b28       0x28 /Users/cho45/arm-cs-tools/arm-none-eabi/lib//libc.a(lib_a-fwalk.o)
 .debug_aranges
                0x0000000000000b50       0x38 /Users/cho45/arm-cs-tools/arm-none-eabi/lib//libc.a(lib_a-gdtoa-gethex.o)
 .debug_aranges
                0x0000000000000b88       0x28 /Users/cho45/arm-cs-tools/arm-none-eabi/lib//libc.a(lib_a-gdtoa-hexnan.o)
 .debug_aranges
                0x0000000000000bb0       0x20 /Users/cho45/arm-cs-tools/arm-none-eabi/lib//libc.a(lib_a-isattyr.o)
 .debug_aranges
                0x0000000000000bd0       0x58 /Users/cho45/arm-cs-tools/arm-none-eabi/lib//libc.a(lib_a-locale.o)
 .debug_aranges
                0x0000000000000c28       0x20 /Users/cho45/arm-cs-tools/arm-none-eabi/lib//libc.a(lib_a-lseekr.o)
 .debug_aranges
                0x0000000000000c48       0xb0 /Users/cho45/arm-cs-tools/arm-none-eabi/lib//libc.a(lib_a-mprec.o)
 .debug_aranges
                0x0000000000000cf8       0x20 /Users/cho45/arm-cs-tools/arm-none-eabi/lib//libc.a(lib_a-readr.o)
 .debug_aranges
                0x0000000000000d18       0x20 /Users/cho45/arm-cs-tools/arm-none-eabi/lib//libc.a(lib_a-strncmp.o)
 .debug_aranges
                0x0000000000000d38       0x20 /Users/cho45/arm-cs-tools/arm-none-eabi/lib//libc.a(lib_a-svfprintf.o)
 .debug_aranges
                0x0000000000000d58       0x30 /Users/cho45/arm-cs-tools/arm-none-eabi/lib//libc.a(lib_a-vfiprintf.o)
 .debug_aranges
                0x0000000000000d88       0x20 /Users/cho45/arm-cs-tools/arm-none-eabi/lib//libc.a(lib_a-__atexit.o)
 .debug_aranges
                0x0000000000000da8       0x20 /Users/cho45/arm-cs-tools/arm-none-eabi/lib//libc.a(lib_a-callocr.o)
 .debug_aranges
                0x0000000000000dc8       0x28 /Users/cho45/arm-cs-tools/arm-none-eabi/lib//libc.a(lib_a-fclose.o)
 .debug_aranges
                0x0000000000000df0       0x28 /Users/cho45/arm-cs-tools/arm-none-eabi/lib//libc.a(lib_a-fputwc.o)
 .debug_aranges
                0x0000000000000e18       0x28 /Users/cho45/arm-cs-tools/arm-none-eabi/lib//libc.a(lib_a-svfiprintf.o)
 .debug_aranges
                0x0000000000000e40       0x28 /Users/cho45/arm-cs-tools/arm-none-eabi/lib//libc.a(lib_a-wcrtomb.o)
 .debug_aranges
                0x0000000000000e68       0x28 /Users/cho45/arm-cs-tools/arm-none-eabi/lib//libc.a(lib_a-wctomb_r.o)
 .debug_aranges
                0x0000000000000e90       0x20 /Users/cho45/arm-cs-tools/arm-none-eabi/lib//libm.a(lib_a-s_ceil.o)
 .debug_aranges
                0x0000000000000eb0       0x20 /Users/cho45/arm-cs-tools/arm-none-eabi/lib//libm.a(lib_a-s_floor.o)
 .debug_aranges
                0x0000000000000ed0       0x20 /Users/cho45/arm-cs-tools/arm-none-eabi/lib//libm.a(lib_a-w_fmod.o)
 .debug_aranges
                0x0000000000000ef0       0x20 /Users/cho45/arm-cs-tools/arm-none-eabi/lib//libm.a(lib_a-w_log10.o)
 .debug_aranges
                0x0000000000000f10       0x20 /Users/cho45/arm-cs-tools/arm-none-eabi/lib//libm.a(lib_a-w_pow.o)
 .debug_aranges
                0x0000000000000f30       0x20 /Users/cho45/arm-cs-tools/arm-none-eabi/lib//libm.a(lib_a-e_fmod.o)
 .debug_aranges
                0x0000000000000f50       0x20 /Users/cho45/arm-cs-tools/arm-none-eabi/lib//libm.a(lib_a-e_log10.o)
 .debug_aranges
                0x0000000000000f70       0x20 /Users/cho45/arm-cs-tools/arm-none-eabi/lib//libm.a(lib_a-e_pow.o)
 .debug_aranges
                0x0000000000000f90       0x20 /Users/cho45/arm-cs-tools/arm-none-eabi/lib//libm.a(lib_a-e_sqrt.o)
 .debug_aranges
                0x0000000000000fb0       0x20 /Users/cho45/arm-cs-tools/arm-none-eabi/lib//libm.a(lib_a-s_fabs.o)
 .debug_aranges
                0x0000000000000fd0       0x20 /Users/cho45/arm-cs-tools/arm-none-eabi/lib//libm.a(lib_a-s_finite.o)
 .debug_aranges
                0x0000000000000ff0       0x18 /Users/cho45/arm-cs-tools/arm-none-eabi/lib//libm.a(lib_a-s_lib_ver.o)
 .debug_aranges
                0x0000000000001008       0x20 /Users/cho45/arm-cs-tools/arm-none-eabi/lib//libm.a(lib_a-s_matherr.o)
 .debug_aranges
                0x0000000000001028       0x20 /Users/cho45/arm-cs-tools/arm-none-eabi/lib//libm.a(lib_a-s_nan.o)
 .debug_aranges
                0x0000000000001048       0x20 /Users/cho45/arm-cs-tools/arm-none-eabi/lib//libm.a(lib_a-s_rint.o)
 .debug_aranges
                0x0000000000001068       0x20 /Users/cho45/arm-cs-tools/arm-none-eabi/lib//libm.a(lib_a-s_scalbn.o)
 .debug_aranges
                0x0000000000001088       0x20 /Users/cho45/arm-cs-tools/arm-none-eabi/lib//libm.a(lib_a-e_log.o)
 .debug_aranges
                0x00000000000010a8       0x20 /Users/cho45/arm-cs-tools/arm-none-eabi/lib//libm.a(lib_a-s_copysign.o)
 .debug_aranges
                0x00000000000010c8       0x20 /Users/cho45/arm-cs-tools/lib/gcc/arm-none-eabi/4.7.3/libgcc.a(_udivsi3.o)
 .debug_aranges
                0x00000000000010e8       0x20 /Users/cho45/arm-cs-tools/lib/gcc/arm-none-eabi/4.7.3/libgcc.a(_divsi3.o)
 .debug_aranges
                0x0000000000001108       0x20 /Users/cho45/arm-cs-tools/lib/gcc/arm-none-eabi/4.7.3/libgcc.a(_dvmd_tls.o)
 .debug_aranges
                0x0000000000001128       0x20 /Users/cho45/arm-cs-tools/lib/gcc/arm-none-eabi/4.7.3/libgcc.a(_arm_addsubdf3.o)
 .debug_aranges
                0x0000000000001148       0x20 /Users/cho45/arm-cs-tools/lib/gcc/arm-none-eabi/4.7.3/libgcc.a(_arm_muldivdf3.o)
 .debug_aranges
                0x0000000000001168       0x20 /Users/cho45/arm-cs-tools/lib/gcc/arm-none-eabi/4.7.3/libgcc.a(_arm_cmpdf2.o)
 .debug_aranges
                0x0000000000001188       0x20 /Users/cho45/arm-cs-tools/lib/gcc/arm-none-eabi/4.7.3/libgcc.a(_arm_fixdfsi.o)
 .debug_aranges
                0x00000000000011a8       0x20 /Users/cho45/arm-cs-tools/lib/gcc/arm-none-eabi/4.7.3/libgcc.a(_arm_fixunsdfsi.o)
 .debug_aranges
                0x00000000000011c8       0x20 /Users/cho45/arm-cs-tools/lib/gcc/arm-none-eabi/4.7.3/libgcc.a(_arm_truncdfsf2.o)
 .debug_aranges
                0x00000000000011e8       0x20 /Users/cho45/arm-cs-tools/lib/gcc/arm-none-eabi/4.7.3/libgcc.a(_arm_cmpsf2.o)
 .debug_aranges
                0x0000000000001208       0x20 /Users/cho45/arm-cs-tools/lib/gcc/arm-none-eabi/4.7.3/libgcc.a(_aeabi_uldivmod.o)
 .debug_aranges
                0x0000000000001228       0x20 /Users/cho45/arm-cs-tools/lib/gcc/arm-none-eabi/4.7.3/libgcc.a(bpabi.o)
 .debug_aranges
                0x0000000000001248       0x20 /Users/cho45/arm-cs-tools/lib/gcc/arm-none-eabi/4.7.3/libgcc.a(_divdi3.o)
 .debug_aranges
                0x0000000000001268       0x20 /Users/cho45/arm-cs-tools/lib/gcc/arm-none-eabi/4.7.3/libgcc.a(_udivdi3.o)
 .debug_aranges
                0x0000000000001288       0x20 /Users/cho45/arm-cs-tools/lib/gcc/arm-none-eabi/4.7.3/libgcc.a(_clzsi2.o)

.debug_line     0x0000000000000000    0x1257f
 .debug_line    0x0000000000000000      0x181 main.o
 .debug_line    0x0000000000000181      0x125 syscalls.o
 .debug_line    0x00000000000002a6      0x5c7 /Users/cho45/project/raspberrypi-mruby-bare-metal/mruby/build/arm-eabi-raspberry-pi/lib/libmruby.a(load.o)
 .debug_line    0x000000000000086d      0x20a /Users/cho45/project/raspberrypi-mruby-bare-metal/mruby/build/arm-eabi-raspberry-pi/lib/libmruby.a(proc.o)
 .debug_line    0x0000000000000a77      0x1f1 /Users/cho45/project/raspberrypi-mruby-bare-metal/mruby/build/arm-eabi-raspberry-pi/lib/libmruby.a(state.o)
 .debug_line    0x0000000000000c68      0xbd6 /Users/cho45/project/raspberrypi-mruby-bare-metal/mruby/build/arm-eabi-raspberry-pi/lib/libmruby.a(string.o)
 .debug_line    0x000000000000183e      0x4d2 /Users/cho45/project/raspberrypi-mruby-bare-metal/mruby/build/arm-eabi-raspberry-pi/lib/libmruby.a(symbol.o)
 .debug_line    0x0000000000001d10      0x5c2 /Users/cho45/project/raspberrypi-mruby-bare-metal/mruby/build/arm-eabi-raspberry-pi/lib/libmruby.a(variable.o)
 .debug_line    0x00000000000022d2      0xb28 /Users/cho45/project/raspberrypi-mruby-bare-metal/mruby/build/arm-eabi-raspberry-pi/lib/libmruby.a(vm.o)
 .debug_line    0x0000000000002dfa      0x66d /Users/cho45/project/raspberrypi-mruby-bare-metal/mruby/build/arm-eabi-raspberry-pi/lib/libmruby.a(array.o)
 .debug_line    0x0000000000003467      0x94b /Users/cho45/project/raspberrypi-mruby-bare-metal/mruby/build/arm-eabi-raspberry-pi/lib/libmruby.a(class.o)
 .debug_line    0x0000000000003db2       0xc9 /Users/cho45/project/raspberrypi-mruby-bare-metal/mruby/build/arm-eabi-raspberry-pi/lib/libmruby.a(crc.o)
 .debug_line    0x0000000000003e7b      0x26f /Users/cho45/project/raspberrypi-mruby-bare-metal/mruby/build/arm-eabi-raspberry-pi/lib/libmruby.a(debug.o)
 .debug_line    0x00000000000040ea      0x3d0 /Users/cho45/project/raspberrypi-mruby-bare-metal/mruby/build/arm-eabi-raspberry-pi/lib/libmruby.a(error.o)
 .debug_line    0x00000000000044ba      0x60b /Users/cho45/project/raspberrypi-mruby-bare-metal/mruby/build/arm-eabi-raspberry-pi/lib/libmruby.a(gc.o)
 .debug_line    0x0000000000004ac5      0x55a /Users/cho45/project/raspberrypi-mruby-bare-metal/mruby/build/arm-eabi-raspberry-pi/lib/libmruby.a(hash.o)
 .debug_line    0x000000000000501f      0x125 /Users/cho45/project/raspberrypi-mruby-bare-metal/mruby/build/arm-eabi-raspberry-pi/lib/libmruby.a(init.o)
 .debug_line    0x0000000000005144      0x592 /Users/cho45/project/raspberrypi-mruby-bare-metal/mruby/build/arm-eabi-raspberry-pi/lib/libmruby.a(kernel.o)
 .debug_line    0x00000000000056d6      0x5b5 /Users/cho45/project/raspberrypi-mruby-bare-metal/mruby/build/arm-eabi-raspberry-pi/lib/libmruby.a(numeric.o)
 .debug_line    0x0000000000005c8b      0x359 /Users/cho45/project/raspberrypi-mruby-bare-metal/mruby/build/arm-eabi-raspberry-pi/lib/libmruby.a(object.o)
 .debug_line    0x0000000000005fe4      0x219 /Users/cho45/project/raspberrypi-mruby-bare-metal/mruby/build/arm-eabi-raspberry-pi/lib/libmruby.a(print.o)
 .debug_line    0x00000000000061fd      0x347 /Users/cho45/project/raspberrypi-mruby-bare-metal/mruby/build/arm-eabi-raspberry-pi/lib/libmruby.a(range.o)
 .debug_line    0x0000000000006544      0x11f /Users/cho45/project/raspberrypi-mruby-bare-metal/mruby/build/arm-eabi-raspberry-pi/lib/libmruby.a(version.o)
 .debug_line    0x0000000000006663      0x132 /Users/cho45/project/raspberrypi-mruby-bare-metal/mruby/build/arm-eabi-raspberry-pi/lib/libmruby.a(mrblib.o)
 .debug_line    0x0000000000006795      0x2ce /Users/cho45/project/raspberrypi-mruby-bare-metal/mruby/build/arm-eabi-raspberry-pi/lib/libmruby.a(backtrace.o)
 .debug_line    0x0000000000006a63      0x115 /Users/cho45/project/raspberrypi-mruby-bare-metal/mruby/build/arm-eabi-raspberry-pi/lib/libmruby.a(compar.o)
 .debug_line    0x0000000000006b78      0x113 /Users/cho45/project/raspberrypi-mruby-bare-metal/mruby/build/arm-eabi-raspberry-pi/lib/libmruby.a(enum.o)
 .debug_line    0x0000000000006c8b      0x1b5 /Users/cho45/project/raspberrypi-mruby-bare-metal/mruby/build/arm-eabi-raspberry-pi/lib/libmruby.a(etc.o)
 .debug_line    0x0000000000006e40      0x12b /Users/cho45/arm-cs-tools/arm-none-eabi/lib//libc.a(lib_a-abort.o)
 .debug_line    0x0000000000006f6b       0xc1 /Users/cho45/arm-cs-tools/arm-none-eabi/lib//libc.a(lib_a-abs.o)
 .debug_line    0x000000000000702c       0x73 /Users/cho45/arm-cs-tools/arm-none-eabi/lib//libc.a(lib_a-ctype_.o)
 .debug_line    0x000000000000709f      0x130 /Users/cho45/arm-cs-tools/arm-none-eabi/lib//libc.a(lib_a-errno.o)
 .debug_line    0x00000000000071cf      0x199 /Users/cho45/arm-cs-tools/arm-none-eabi/lib//libc.a(lib_a-exit.o)
 .debug_line    0x0000000000007368      0x1d0 /Users/cho45/arm-cs-tools/arm-none-eabi/lib//libc.a(lib_a-fputs.o)
 .debug_line    0x0000000000007538      0x1ed /Users/cho45/arm-cs-tools/arm-none-eabi/lib//libc.a(lib_a-fread.o)
 .debug_line    0x0000000000007725      0x2c2 /Users/cho45/arm-cs-tools/arm-none-eabi/lib//libc.a(lib_a-fseek.o)
 .debug_line    0x00000000000079e7      0x1a2 /Users/cho45/arm-cs-tools/arm-none-eabi/lib//libc.a(lib_a-fstatr.o)
 .debug_line    0x0000000000007b89      0x1cb /Users/cho45/arm-cs-tools/arm-none-eabi/lib//libc.a(lib_a-ftell.o)
 .debug_line    0x0000000000007d54      0x260 /Users/cho45/arm-cs-tools/arm-none-eabi/lib//libc.a(lib_a-fvwrite.o)
 .debug_line    0x0000000000007fb4      0x1ca /Users/cho45/arm-cs-tools/arm-none-eabi/lib//libc.a(lib_a-fwrite.o)
 .debug_line    0x000000000000817e      0x116 /Users/cho45/arm-cs-tools/arm-none-eabi/lib//libc.a(lib_a-impure.o)
 .debug_line    0x0000000000008294      0x1f4 /Users/cho45/arm-cs-tools/arm-none-eabi/lib//libc.a(lib_a-makebuf.o)
 .debug_line    0x0000000000008488      0x196 /Users/cho45/arm-cs-tools/arm-none-eabi/lib//libc.a(lib_a-malloc.o)
 .debug_line    0x000000000000861e      0x2df /Users/cho45/arm-cs-tools/arm-none-eabi/lib//libc.a(lib_a-mallocr.o)
 .debug_line    0x00000000000088fd      0x122 /Users/cho45/arm-cs-tools/arm-none-eabi/lib//libc.a(lib_a-memchr.o)
 .debug_line    0x0000000000008a1f      0x125 /Users/cho45/arm-cs-tools/arm-none-eabi/lib//libc.a(lib_a-memcmp.o)
 .debug_line    0x0000000000008b44      0x131 /Users/cho45/arm-cs-tools/arm-none-eabi/lib//libc.a(lib_a-memcpy.o)
 .debug_line    0x0000000000008c75      0x140 /Users/cho45/arm-cs-tools/arm-none-eabi/lib//libc.a(lib_a-memmove.o)
 .debug_line    0x0000000000008db5      0x122 /Users/cho45/arm-cs-tools/arm-none-eabi/lib//libc.a(lib_a-memset.o)
 .debug_line    0x0000000000008ed7      0x134 /Users/cho45/arm-cs-tools/arm-none-eabi/lib//libc.a(lib_a-mlock.o)
 .debug_line    0x000000000000900b      0x1b1 /Users/cho45/arm-cs-tools/arm-none-eabi/lib//libc.a(lib_a-printf.o)
 .debug_line    0x00000000000091bc      0x183 /Users/cho45/arm-cs-tools/arm-none-eabi/lib//libc.a(lib_a-realloc.o)
 .debug_line    0x000000000000933f      0x1f4 /Users/cho45/arm-cs-tools/arm-none-eabi/lib//libc.a(lib_a-reallocr.o)
 .debug_line    0x0000000000009533      0x1ea /Users/cho45/arm-cs-tools/arm-none-eabi/lib//libc.a(lib_a-reent.o)
 .debug_line    0x000000000000971d      0x206 /Users/cho45/arm-cs-tools/arm-none-eabi/lib//libc.a(lib_a-refill.o)
 .debug_line    0x0000000000009923      0x13c /Users/cho45/arm-cs-tools/arm-none-eabi/lib//libc.a(lib_a-s_fpclassify.o)
 .debug_line    0x0000000000009a5f      0x18c /Users/cho45/arm-cs-tools/arm-none-eabi/lib//libc.a(lib_a-sbrkr.o)
 .debug_line    0x0000000000009beb       0x81 /Users/cho45/arm-cs-tools/arm-none-eabi/lib//libc.a(lib_a-setjmp.o)
 .debug_line    0x0000000000009c6c      0x281 /Users/cho45/arm-cs-tools/arm-none-eabi/lib//libc.a(lib_a-signal.o)
 .debug_line    0x0000000000009eed      0x1a0 /Users/cho45/arm-cs-tools/arm-none-eabi/lib//libc.a(lib_a-signalr.o)
 .debug_line    0x000000000000a08d      0x1e9 /Users/cho45/arm-cs-tools/arm-none-eabi/lib//libc.a(lib_a-stdio.o)
 .debug_line    0x000000000000a276       0xcc /Users/cho45/arm-cs-tools/arm-none-eabi/lib//libc.a(lib_a-strcmp.o)
 .debug_line    0x000000000000a342      0x11a /Users/cho45/arm-cs-tools/arm-none-eabi/lib//libc.a(lib_a-strlen.o)
 .debug_line    0x000000000000a45c      0x5e2 /Users/cho45/arm-cs-tools/arm-none-eabi/lib//libc.a(lib_a-strtod.o)
 .debug_line    0x000000000000aa3e      0x20e /Users/cho45/arm-cs-tools/arm-none-eabi/lib//libc.a(lib_a-strtoul.o)
 .debug_line    0x000000000000ac4c      0x82e /Users/cho45/arm-cs-tools/arm-none-eabi/lib//libc.a(lib_a-vfprintf.o)
 .debug_line    0x000000000000b47a      0x1c3 /Users/cho45/arm-cs-tools/arm-none-eabi/lib//libc.a(lib_a-vsnprintf.o)
 .debug_line    0x000000000000b63d      0x1e1 /Users/cho45/arm-cs-tools/arm-none-eabi/lib//libc.a(lib_a-wbuf.o)
 .debug_line    0x000000000000b81e      0x18c /Users/cho45/arm-cs-tools/arm-none-eabi/lib//libc.a(lib_a-writer.o)
 .debug_line    0x000000000000b9aa      0x1c9 /Users/cho45/arm-cs-tools/arm-none-eabi/lib//libc.a(lib_a-wsetup.o)
 .debug_line    0x000000000000bb73      0x201 /Users/cho45/arm-cs-tools/arm-none-eabi/lib//libc.a(lib_a-__call_atexit.o)
 .debug_line    0x000000000000bd74       0xd3 /Users/cho45/arm-cs-tools/arm-none-eabi/lib//libc.a(lib_a-atexit.o)
 .debug_line    0x000000000000be47      0x18d /Users/cho45/arm-cs-tools/arm-none-eabi/lib//libc.a(lib_a-closer.o)
 .debug_line    0x000000000000bfd4      0x679 /Users/cho45/arm-cs-tools/arm-none-eabi/lib//libc.a(lib_a-dtoa.o)
 .debug_line    0x000000000000c64d      0x231 /Users/cho45/arm-cs-tools/arm-none-eabi/lib//libc.a(lib_a-fflush.o)
 .debug_line    0x000000000000c87e      0x2ee /Users/cho45/arm-cs-tools/arm-none-eabi/lib//libc.a(lib_a-findfp.o)
 .debug_line    0x000000000000cb6c       0xc8 /Users/cho45/arm-cs-tools/arm-none-eabi/lib//libc.a(lib_a-fini.o)
 .debug_line    0x000000000000cc34      0x235 /Users/cho45/arm-cs-tools/arm-none-eabi/lib//libc.a(lib_a-freer.o)
 .debug_line    0x000000000000ce69      0x1be /Users/cho45/arm-cs-tools/arm-none-eabi/lib//libc.a(lib_a-fwalk.o)
 .debug_line    0x000000000000d027      0x3b2 /Users/cho45/arm-cs-tools/arm-none-eabi/lib//libc.a(lib_a-gdtoa-gethex.o)
 .debug_line    0x000000000000d3d9      0x171 /Users/cho45/arm-cs-tools/arm-none-eabi/lib//libc.a(lib_a-gdtoa-hexnan.o)
 .debug_line    0x000000000000d54a      0x18e /Users/cho45/arm-cs-tools/arm-none-eabi/lib//libc.a(lib_a-isattyr.o)
 .debug_line    0x000000000000d6d8      0x224 /Users/cho45/arm-cs-tools/arm-none-eabi/lib//libc.a(lib_a-locale.o)
 .debug_line    0x000000000000d8fc      0x18c /Users/cho45/arm-cs-tools/arm-none-eabi/lib//libc.a(lib_a-lseekr.o)
 .debug_line    0x000000000000da88      0x6aa /Users/cho45/arm-cs-tools/arm-none-eabi/lib//libc.a(lib_a-mprec.o)
 .debug_line    0x000000000000e132      0x18b /Users/cho45/arm-cs-tools/arm-none-eabi/lib//libc.a(lib_a-readr.o)
 .debug_line    0x000000000000e2bd      0x12b /Users/cho45/arm-cs-tools/arm-none-eabi/lib//libc.a(lib_a-strncmp.o)
 .debug_line    0x000000000000e3e8      0x7f1 /Users/cho45/arm-cs-tools/arm-none-eabi/lib//libc.a(lib_a-svfprintf.o)
 .debug_line    0x000000000000ebd9      0x583 /Users/cho45/arm-cs-tools/arm-none-eabi/lib//libc.a(lib_a-vfiprintf.o)
 .debug_line    0x000000000000f15c      0x1b7 /Users/cho45/arm-cs-tools/arm-none-eabi/lib//libc.a(lib_a-__atexit.o)
 .debug_line    0x000000000000f313      0x14e /Users/cho45/arm-cs-tools/arm-none-eabi/lib//libc.a(lib_a-callocr.o)
 .debug_line    0x000000000000f461      0x1e3 /Users/cho45/arm-cs-tools/arm-none-eabi/lib//libc.a(lib_a-fclose.o)
 .debug_line    0x000000000000f644      0x1dc /Users/cho45/arm-cs-tools/arm-none-eabi/lib//libc.a(lib_a-fputwc.o)
 .debug_line    0x000000000000f820      0x545 /Users/cho45/arm-cs-tools/arm-none-eabi/lib//libc.a(lib_a-svfiprintf.o)
 .debug_line    0x000000000000fd65      0x1b2 /Users/cho45/arm-cs-tools/arm-none-eabi/lib//libc.a(lib_a-wcrtomb.o)
 .debug_line    0x000000000000ff17      0x1b6 /Users/cho45/arm-cs-tools/arm-none-eabi/lib//libc.a(lib_a-wctomb_r.o)
 .debug_line    0x00000000000100cd      0x194 /Users/cho45/arm-cs-tools/arm-none-eabi/lib//libm.a(lib_a-s_ceil.o)
 .debug_line    0x0000000000010261      0x192 /Users/cho45/arm-cs-tools/arm-none-eabi/lib//libm.a(lib_a-s_floor.o)
 .debug_line    0x00000000000103f3      0x189 /Users/cho45/arm-cs-tools/arm-none-eabi/lib//libm.a(lib_a-w_fmod.o)
 .debug_line    0x000000000001057c      0x191 /Users/cho45/arm-cs-tools/arm-none-eabi/lib//libm.a(lib_a-w_log10.o)
 .debug_line    0x000000000001070d      0x1f6 /Users/cho45/arm-cs-tools/arm-none-eabi/lib//libm.a(lib_a-w_pow.o)
 .debug_line    0x0000000000010903      0x1bb /Users/cho45/arm-cs-tools/arm-none-eabi/lib//libm.a(lib_a-e_fmod.o)
 .debug_line    0x0000000000010abe      0x14a /Users/cho45/arm-cs-tools/arm-none-eabi/lib//libm.a(lib_a-e_log10.o)
 .debug_line    0x0000000000010c08      0x2e3 /Users/cho45/arm-cs-tools/arm-none-eabi/lib//libm.a(lib_a-e_pow.o)
 .debug_line    0x0000000000010eeb      0x19b /Users/cho45/arm-cs-tools/arm-none-eabi/lib//libm.a(lib_a-e_sqrt.o)
 .debug_line    0x0000000000011086      0x171 /Users/cho45/arm-cs-tools/arm-none-eabi/lib//libm.a(lib_a-s_fabs.o)
 .debug_line    0x00000000000111f7      0x12c /Users/cho45/arm-cs-tools/arm-none-eabi/lib//libm.a(lib_a-s_finite.o)
 .debug_line    0x0000000000011323       0x72 /Users/cho45/arm-cs-tools/arm-none-eabi/lib//libm.a(lib_a-s_lib_ver.o)
 .debug_line    0x0000000000011395       0xc6 /Users/cho45/arm-cs-tools/arm-none-eabi/lib//libm.a(lib_a-s_matherr.o)
 .debug_line    0x000000000001145b       0xc3 /Users/cho45/arm-cs-tools/arm-none-eabi/lib//libm.a(lib_a-s_nan.o)
 .debug_line    0x000000000001151e      0x168 /Users/cho45/arm-cs-tools/arm-none-eabi/lib//libm.a(lib_a-s_rint.o)
 .debug_line    0x0000000000011686      0x164 /Users/cho45/arm-cs-tools/arm-none-eabi/lib//libm.a(lib_a-s_scalbn.o)
 .debug_line    0x00000000000117ea      0x1b8 /Users/cho45/arm-cs-tools/arm-none-eabi/lib//libm.a(lib_a-e_log.o)
 .debug_line    0x00000000000119a2      0x13e /Users/cho45/arm-cs-tools/arm-none-eabi/lib//libm.a(lib_a-s_copysign.o)
 .debug_line    0x0000000000011ae0       0x93 /Users/cho45/arm-cs-tools/lib/gcc/arm-none-eabi/4.7.3/libgcc.a(_udivsi3.o)
 .debug_line    0x0000000000011b73       0x9f /Users/cho45/arm-cs-tools/lib/gcc/arm-none-eabi/4.7.3/libgcc.a(_divsi3.o)
 .debug_line    0x0000000000011c12       0x6a /Users/cho45/arm-cs-tools/lib/gcc/arm-none-eabi/4.7.3/libgcc.a(_dvmd_tls.o)
 .debug_line    0x0000000000011c7c      0x171 /Users/cho45/arm-cs-tools/lib/gcc/arm-none-eabi/4.7.3/libgcc.a(_arm_addsubdf3.o)
 .debug_line    0x0000000000011ded      0x189 /Users/cho45/arm-cs-tools/lib/gcc/arm-none-eabi/4.7.3/libgcc.a(_arm_muldivdf3.o)
 .debug_line    0x0000000000011f76       0xb7 /Users/cho45/arm-cs-tools/lib/gcc/arm-none-eabi/4.7.3/libgcc.a(_arm_cmpdf2.o)
 .debug_line    0x000000000001202d       0x81 /Users/cho45/arm-cs-tools/lib/gcc/arm-none-eabi/4.7.3/libgcc.a(_arm_fixdfsi.o)
 .debug_line    0x00000000000120ae       0x7f /Users/cho45/arm-cs-tools/lib/gcc/arm-none-eabi/4.7.3/libgcc.a(_arm_fixunsdfsi.o)
 .debug_line    0x000000000001212d       0x92 /Users/cho45/arm-cs-tools/lib/gcc/arm-none-eabi/4.7.3/libgcc.a(_arm_truncdfsf2.o)
 .debug_line    0x00000000000121bf       0xab /Users/cho45/arm-cs-tools/lib/gcc/arm-none-eabi/4.7.3/libgcc.a(_arm_cmpsf2.o)
 .debug_line    0x000000000001226a       0x6f /Users/cho45/arm-cs-tools/lib/gcc/arm-none-eabi/4.7.3/libgcc.a(_aeabi_uldivmod.o)
 .debug_line    0x00000000000122d9       0x70 /Users/cho45/arm-cs-tools/lib/gcc/arm-none-eabi/4.7.3/libgcc.a(bpabi.o)
 .debug_line    0x0000000000012349       0xe7 /Users/cho45/arm-cs-tools/lib/gcc/arm-none-eabi/4.7.3/libgcc.a(_divdi3.o)
 .debug_line    0x0000000000012430       0xd8 /Users/cho45/arm-cs-tools/lib/gcc/arm-none-eabi/4.7.3/libgcc.a(_udivdi3.o)
 .debug_line    0x0000000000012508       0x77 /Users/cho45/arm-cs-tools/lib/gcc/arm-none-eabi/4.7.3/libgcc.a(_clzsi2.o)

.debug_str      0x0000000000000000     0x73c1
 .debug_str     0x0000000000000000      0x605 main.o
                                        0x6f0 (size before relaxing)
 .debug_str     0x0000000000000605      0x216 syscalls.o
                                        0x34b (size before relaxing)
 .debug_str     0x000000000000081b      0xa48 /Users/cho45/project/raspberrypi-mruby-bare-metal/mruby/build/arm-eabi-raspberry-pi/lib/libmruby.a(load.o)
                                       0x11e4 (size before relaxing)
 .debug_str     0x0000000000001263      0x1a0 /Users/cho45/project/raspberrypi-mruby-bare-metal/mruby/build/arm-eabi-raspberry-pi/lib/libmruby.a(proc.o)
                                        0xb4f (size before relaxing)
 .debug_str     0x0000000000001403      0x112 /Users/cho45/project/raspberrypi-mruby-bare-metal/mruby/build/arm-eabi-raspberry-pi/lib/libmruby.a(state.o)
                                        0x898 (size before relaxing)
 .debug_str     0x0000000000001515      0x65d /Users/cho45/project/raspberrypi-mruby-bare-metal/mruby/build/arm-eabi-raspberry-pi/lib/libmruby.a(string.o)
                                        0xd4e (size before relaxing)
 .debug_str     0x0000000000001b72      0x27e /Users/cho45/project/raspberrypi-mruby-bare-metal/mruby/build/arm-eabi-raspberry-pi/lib/libmruby.a(symbol.o)
                                        0x980 (size before relaxing)
 .debug_str     0x0000000000001df0      0x458 /Users/cho45/project/raspberrypi-mruby-bare-metal/mruby/build/arm-eabi-raspberry-pi/lib/libmruby.a(variable.o)
                                        0xc60 (size before relaxing)
 .debug_str     0x0000000000002248      0x5e7 /Users/cho45/project/raspberrypi-mruby-bare-metal/mruby/build/arm-eabi-raspberry-pi/lib/libmruby.a(vm.o)
                                       0x10a2 (size before relaxing)
 .debug_str     0x000000000000282f      0x39c /Users/cho45/project/raspberrypi-mruby-bare-metal/mruby/build/arm-eabi-raspberry-pi/lib/libmruby.a(array.o)
                                        0xab3 (size before relaxing)
 .debug_str     0x0000000000002bcb      0x7ae /Users/cho45/project/raspberrypi-mruby-bare-metal/mruby/build/arm-eabi-raspberry-pi/lib/libmruby.a(class.o)
                                       0x108b (size before relaxing)
 .debug_str     0x0000000000003379       0x42 /Users/cho45/project/raspberrypi-mruby-bare-metal/mruby/build/arm-eabi-raspberry-pi/lib/libmruby.a(crc.o)
                                        0x100 (size before relaxing)
 .debug_str     0x00000000000033bb       0xf3 /Users/cho45/project/raspberrypi-mruby-bare-metal/mruby/build/arm-eabi-raspberry-pi/lib/libmruby.a(debug.o)
                                        0x84d (size before relaxing)
 .debug_str     0x00000000000034ae      0x152 /Users/cho45/project/raspberrypi-mruby-bare-metal/mruby/build/arm-eabi-raspberry-pi/lib/libmruby.a(error.o)
                                        0xd95 (size before relaxing)
 .debug_str     0x0000000000003600      0x42f /Users/cho45/project/raspberrypi-mruby-bare-metal/mruby/build/arm-eabi-raspberry-pi/lib/libmruby.a(gc.o)
                                        0xc7d (size before relaxing)
 .debug_str     0x0000000000003a2f      0x38e /Users/cho45/project/raspberrypi-mruby-bare-metal/mruby/build/arm-eabi-raspberry-pi/lib/libmruby.a(hash.o)
                                        0xb1a (size before relaxing)
 .debug_str     0x0000000000003dbd       0x43 /Users/cho45/project/raspberrypi-mruby-bare-metal/mruby/build/arm-eabi-raspberry-pi/lib/libmruby.a(init.o)
                                        0x635 (size before relaxing)
 .debug_str     0x0000000000003e00      0x484 /Users/cho45/project/raspberrypi-mruby-bare-metal/mruby/build/arm-eabi-raspberry-pi/lib/libmruby.a(kernel.o)
                                        0xd2d (size before relaxing)
 .debug_str     0x0000000000004284      0x26c /Users/cho45/project/raspberrypi-mruby-bare-metal/mruby/build/arm-eabi-raspberry-pi/lib/libmruby.a(numeric.o)
                                        0x948 (size before relaxing)
 .debug_str     0x00000000000044f0      0x1c7 /Users/cho45/project/raspberrypi-mruby-bare-metal/mruby/build/arm-eabi-raspberry-pi/lib/libmruby.a(object.o)
                                        0x8a0 (size before relaxing)
 .debug_str     0x00000000000046b7       0x6a /Users/cho45/project/raspberrypi-mruby-bare-metal/mruby/build/arm-eabi-raspberry-pi/lib/libmruby.a(print.o)
                                        0xa4b (size before relaxing)
 .debug_str     0x0000000000004721      0x13e /Users/cho45/project/raspberrypi-mruby-bare-metal/mruby/build/arm-eabi-raspberry-pi/lib/libmruby.a(range.o)
                                        0x7cb (size before relaxing)
 .debug_str     0x000000000000485f       0x3a /Users/cho45/project/raspberrypi-mruby-bare-metal/mruby/build/arm-eabi-raspberry-pi/lib/libmruby.a(version.o)
                                        0x62c (size before relaxing)
 .debug_str     0x0000000000004899       0x63 /Users/cho45/project/raspberrypi-mruby-bare-metal/mruby/build/arm-eabi-raspberry-pi/lib/libmruby.a(mrblib.o)
                                        0x655 (size before relaxing)
 .debug_str     0x00000000000048fc       0xb8 /Users/cho45/project/raspberrypi-mruby-bare-metal/mruby/build/arm-eabi-raspberry-pi/lib/libmruby.a(backtrace.o)
                                        0xcd8 (size before relaxing)
 .debug_str     0x00000000000049b4       0x3c /Users/cho45/project/raspberrypi-mruby-bare-metal/mruby/build/arm-eabi-raspberry-pi/lib/libmruby.a(compar.o)
                                        0x62e (size before relaxing)
 .debug_str     0x00000000000049f0       0x3a /Users/cho45/project/raspberrypi-mruby-bare-metal/mruby/build/arm-eabi-raspberry-pi/lib/libmruby.a(enum.o)
                                        0x62c (size before relaxing)
 .debug_str     0x0000000000004a2a       0x9a /Users/cho45/project/raspberrypi-mruby-bare-metal/mruby/build/arm-eabi-raspberry-pi/lib/libmruby.a(etc.o)
                                        0x6f4 (size before relaxing)
 .debug_str     0x0000000000004ac4       0x98 /Users/cho45/arm-cs-tools/arm-none-eabi/lib//libc.a(lib_a-abort.o)
                                        0x142 (size before relaxing)
 .debug_str     0x0000000000004b5c       0x3a /Users/cho45/arm-cs-tools/arm-none-eabi/lib//libc.a(lib_a-abs.o)
                                        0x12e (size before relaxing)
 .debug_str     0x0000000000004b96       0x99 /Users/cho45/arm-cs-tools/arm-none-eabi/lib//libc.a(lib_a-ctype_.o)
                                         0xc1 (size before relaxing)
 .debug_str     0x0000000000004c2f       0x98 /Users/cho45/arm-cs-tools/arm-none-eabi/lib//libc.a(lib_a-errno.o)
                                        0x4f1 (size before relaxing)
 .debug_str     0x0000000000004cc7       0x5f /Users/cho45/arm-cs-tools/arm-none-eabi/lib//libc.a(lib_a-exit.o)
                                        0x512 (size before relaxing)
 .debug_str     0x0000000000004d26       0xf7 /Users/cho45/arm-cs-tools/arm-none-eabi/lib//libc.a(lib_a-fputs.o)
                                        0x563 (size before relaxing)
 .debug_str     0x0000000000004e1d       0x7d /Users/cho45/arm-cs-tools/arm-none-eabi/lib//libc.a(lib_a-fread.o)
                                        0x55c (size before relaxing)
 .debug_str     0x0000000000004e9a       0xa2 /Users/cho45/arm-cs-tools/arm-none-eabi/lib//libc.a(lib_a-fseek.o)
                                        0x68a (size before relaxing)
 .debug_str     0x0000000000004f3c       0x97 /Users/cho45/arm-cs-tools/arm-none-eabi/lib//libc.a(lib_a-fstatr.o)
                                        0x5e7 (size before relaxing)
 .debug_str     0x0000000000004fd3       0x4a /Users/cho45/arm-cs-tools/arm-none-eabi/lib//libc.a(lib_a-ftell.o)
                                        0x50f (size before relaxing)
 .debug_str     0x000000000000501d       0x8b /Users/cho45/arm-cs-tools/arm-none-eabi/lib//libc.a(lib_a-fvwrite.o)
                                        0x59b (size before relaxing)
 .debug_str     0x00000000000050a8       0x4d /Users/cho45/arm-cs-tools/arm-none-eabi/lib//libc.a(lib_a-fwrite.o)
                                        0x563 (size before relaxing)
 .debug_str     0x00000000000050f5       0x48 /Users/cho45/arm-cs-tools/arm-none-eabi/lib//libc.a(lib_a-impure.o)
                                        0x509 (size before relaxing)
 .debug_str     0x000000000000513d       0x52 /Users/cho45/arm-cs-tools/arm-none-eabi/lib//libc.a(lib_a-makebuf.o)
                                        0x612 (size before relaxing)
 .debug_str     0x000000000000518f       0x42 /Users/cho45/arm-cs-tools/arm-none-eabi/lib//libc.a(lib_a-malloc.o)
                                        0x51d (size before relaxing)
 .debug_str     0x00000000000051d1      0x21a /Users/cho45/arm-cs-tools/arm-none-eabi/lib//libc.a(lib_a-mallocr.o)
                                        0x718 (size before relaxing)
 .debug_str     0x00000000000053eb       0x9c /Users/cho45/arm-cs-tools/arm-none-eabi/lib//libc.a(lib_a-memchr.o)
                                        0x14f (size before relaxing)
 .debug_str     0x0000000000005487       0x44 /Users/cho45/arm-cs-tools/arm-none-eabi/lib//libc.a(lib_a-memcmp.o)
                                        0x13f (size before relaxing)
 .debug_str     0x00000000000054cb       0xad /Users/cho45/arm-cs-tools/arm-none-eabi/lib//libc.a(lib_a-memcpy.o)
                                        0x159 (size before relaxing)
 .debug_str     0x0000000000005578       0x47 /Users/cho45/arm-cs-tools/arm-none-eabi/lib//libc.a(lib_a-memmove.o)
                                        0x15a (size before relaxing)
 .debug_str     0x00000000000055bf       0x60 /Users/cho45/arm-cs-tools/arm-none-eabi/lib//libc.a(lib_a-memset.o)
                                        0x167 (size before relaxing)
 .debug_str     0x000000000000561f       0x51 /Users/cho45/arm-cs-tools/arm-none-eabi/lib//libc.a(lib_a-mlock.o)
                                        0x512 (size before relaxing)
 .debug_str     0x0000000000005670       0x52 /Users/cho45/arm-cs-tools/arm-none-eabi/lib//libc.a(lib_a-printf.o)
                                        0x532 (size before relaxing)
 .debug_str     0x00000000000056c2       0x3e /Users/cho45/arm-cs-tools/arm-none-eabi/lib//libc.a(lib_a-realloc.o)
                                        0x50e (size before relaxing)
 .debug_str     0x0000000000005700       0x49 /Users/cho45/arm-cs-tools/arm-none-eabi/lib//libc.a(lib_a-reallocr.o)
                                        0x5ea (size before relaxing)
 .debug_str     0x0000000000005749       0x75 /Users/cho45/arm-cs-tools/arm-none-eabi/lib//libc.a(lib_a-reent.o)
                                        0x536 (size before relaxing)
 .debug_str     0x00000000000057be       0x4a /Users/cho45/arm-cs-tools/arm-none-eabi/lib//libc.a(lib_a-refill.o)
                                        0x53e (size before relaxing)
 .debug_str     0x0000000000005808       0xb2 /Users/cho45/arm-cs-tools/arm-none-eabi/lib//libc.a(lib_a-s_fpclassify.o)
                                        0x169 (size before relaxing)
 .debug_str     0x00000000000058ba       0x3b /Users/cho45/arm-cs-tools/arm-none-eabi/lib//libc.a(lib_a-sbrkr.o)
                                        0x500 (size before relaxing)
 .debug_str     0x00000000000058f5       0xf9 /Users/cho45/arm-cs-tools/arm-none-eabi/lib//libc.a(lib_a-signal.o)
                                        0x57f (size before relaxing)
 .debug_str     0x00000000000059ee       0x3d /Users/cho45/arm-cs-tools/arm-none-eabi/lib//libc.a(lib_a-signalr.o)
                                        0x505 (size before relaxing)
 .debug_str     0x0000000000005a2b       0x94 /Users/cho45/arm-cs-tools/arm-none-eabi/lib//libc.a(lib_a-stdio.o)
                                        0x563 (size before relaxing)
 .debug_str     0x0000000000005abf       0x4c /Users/cho45/arm-cs-tools/arm-none-eabi/lib//libc.a(lib_a-strcmp.o)
                                        0x145 (size before relaxing)
 .debug_str     0x0000000000005b0b       0x4d /Users/cho45/arm-cs-tools/arm-none-eabi/lib//libc.a(lib_a-strlen.o)
                                        0x154 (size before relaxing)
 .debug_str     0x0000000000005b58      0x370 /Users/cho45/arm-cs-tools/arm-none-eabi/lib//libc.a(lib_a-strtod.o)
                                        0x8fa (size before relaxing)
 .debug_str     0x0000000000005ec8       0x6b /Users/cho45/arm-cs-tools/arm-none-eabi/lib//libc.a(lib_a-strtoul.o)
                                        0x532 (size before relaxing)
 .debug_str     0x0000000000005f33      0x144 /Users/cho45/arm-cs-tools/arm-none-eabi/lib//libc.a(lib_a-vfprintf.o)
                                        0x8c1 (size before relaxing)
 .debug_str     0x0000000000006077       0x63 /Users/cho45/arm-cs-tools/arm-none-eabi/lib//libc.a(lib_a-vsnprintf.o)
                                        0x548 (size before relaxing)
 .debug_str     0x00000000000060da       0x4c /Users/cho45/arm-cs-tools/arm-none-eabi/lib//libc.a(lib_a-wbuf.o)
                                        0x51d (size before relaxing)
 .debug_str     0x0000000000006126       0x3c /Users/cho45/arm-cs-tools/arm-none-eabi/lib//libc.a(lib_a-writer.o)
                                        0x4fd (size before relaxing)
 .debug_str     0x0000000000006162       0x3c /Users/cho45/arm-cs-tools/arm-none-eabi/lib//libc.a(lib_a-wsetup.o)
                                        0x518 (size before relaxing)
 .debug_str     0x000000000000619e       0x7e /Users/cho45/arm-cs-tools/arm-none-eabi/lib//libc.a(lib_a-__call_atexit.o)
                                        0x55b (size before relaxing)
 .debug_str     0x000000000000621c       0x81 /Users/cho45/arm-cs-tools/arm-none-eabi/lib//libc.a(lib_a-atexit.o)
                                        0x17c (size before relaxing)
 .debug_str     0x000000000000629d       0x3c /Users/cho45/arm-cs-tools/arm-none-eabi/lib//libc.a(lib_a-closer.o)
                                        0x4ed (size before relaxing)
 .debug_str     0x00000000000062d9       0xe7 /Users/cho45/arm-cs-tools/arm-none-eabi/lib//libc.a(lib_a-dtoa.o)
                                        0x65b (size before relaxing)
 .debug_str     0x00000000000063c0       0x46 /Users/cho45/arm-cs-tools/arm-none-eabi/lib//libc.a(lib_a-fflush.o)
                                        0x548 (size before relaxing)
 .debug_str     0x0000000000006406       0xd6 /Users/cho45/arm-cs-tools/arm-none-eabi/lib//libc.a(lib_a-findfp.o)
                                        0x602 (size before relaxing)
 .debug_str     0x00000000000064dc       0xb1 /Users/cho45/arm-cs-tools/arm-none-eabi/lib//libc.a(lib_a-fini.o)
                                        0x174 (size before relaxing)
 .debug_str     0x000000000000658d       0x34 /Users/cho45/arm-cs-tools/arm-none-eabi/lib//libc.a(lib_a-freer.o)
                                        0x662 (size before relaxing)
 .debug_str     0x00000000000065c1       0x60 /Users/cho45/arm-cs-tools/arm-none-eabi/lib//libc.a(lib_a-fwalk.o)
                                        0x54a (size before relaxing)
 .debug_str     0x0000000000006621       0xe9 /Users/cho45/arm-cs-tools/arm-none-eabi/lib//libc.a(lib_a-gdtoa-gethex.o)
                                        0x894 (size before relaxing)
 .debug_str     0x000000000000670a       0x4b /Users/cho45/arm-cs-tools/arm-none-eabi/lib//libc.a(lib_a-gdtoa-hexnan.o)
                                        0x27c (size before relaxing)
 .debug_str     0x0000000000006755       0x3d /Users/cho45/arm-cs-tools/arm-none-eabi/lib//libc.a(lib_a-isattyr.o)
                                        0x4f7 (size before relaxing)
 .debug_str     0x0000000000006792      0x173 /Users/cho45/arm-cs-tools/arm-none-eabi/lib//libc.a(lib_a-locale.o)
                                        0x766 (size before relaxing)
 .debug_str     0x0000000000006905       0x3c /Users/cho45/arm-cs-tools/arm-none-eabi/lib//libc.a(lib_a-lseekr.o)
                                        0x502 (size before relaxing)
 .debug_str     0x0000000000006941       0x7f /Users/cho45/arm-cs-tools/arm-none-eabi/lib//libc.a(lib_a-mprec.o)
                                        0x615 (size before relaxing)
 .debug_str     0x00000000000069c0       0x3b /Users/cho45/arm-cs-tools/arm-none-eabi/lib//libc.a(lib_a-readr.o)
                                        0x4fb (size before relaxing)
 .debug_str     0x00000000000069fb       0x3e /Users/cho45/arm-cs-tools/arm-none-eabi/lib//libc.a(lib_a-strncmp.o)
                                        0x141 (size before relaxing)
 .debug_str     0x0000000000006a39        0xc /Users/cho45/arm-cs-tools/arm-none-eabi/lib//libc.a(lib_a-svfprintf.o)
                                        0x87e (size before relaxing)
 .debug_str     0x0000000000006a45       0x29 /Users/cho45/arm-cs-tools/arm-none-eabi/lib//libc.a(lib_a-vfiprintf.o)
                                        0x6b3 (size before relaxing)
 .debug_str     0x0000000000006a6e       0x4d /Users/cho45/arm-cs-tools/arm-none-eabi/lib//libc.a(lib_a-__atexit.o)
                                        0x55f (size before relaxing)
 .debug_str     0x0000000000006abb        0xf /Users/cho45/arm-cs-tools/arm-none-eabi/lib//libc.a(lib_a-callocr.o)
                                        0x542 (size before relaxing)
 .debug_str     0x0000000000006aca       0x4d /Users/cho45/arm-cs-tools/arm-none-eabi/lib//libc.a(lib_a-fclose.o)
                                        0x545 (size before relaxing)
 .debug_str     0x0000000000006b17       0x50 /Users/cho45/arm-cs-tools/arm-none-eabi/lib//libc.a(lib_a-fputwc.o)
                                        0x553 (size before relaxing)
 .debug_str     0x0000000000006b67        0xe /Users/cho45/arm-cs-tools/arm-none-eabi/lib//libc.a(lib_a-svfiprintf.o)
                                        0x681 (size before relaxing)
 .debug_str     0x0000000000006b75       0x4f /Users/cho45/arm-cs-tools/arm-none-eabi/lib//libc.a(lib_a-wcrtomb.o)
                                        0x53a (size before relaxing)
 .debug_str     0x0000000000006bc4       0x5f /Users/cho45/arm-cs-tools/arm-none-eabi/lib//libc.a(lib_a-wctomb_r.o)
                                        0x549 (size before relaxing)
 .debug_str     0x0000000000006c23       0xbb /Users/cho45/arm-cs-tools/arm-none-eabi/lib//libm.a(lib_a-s_ceil.o)
                                        0x192 (size before relaxing)
 .debug_str     0x0000000000006cde       0x3c /Users/cho45/arm-cs-tools/arm-none-eabi/lib//libm.a(lib_a-s_floor.o)
                                        0x194 (size before relaxing)
 .debug_str     0x0000000000006d1a       0xb7 /Users/cho45/arm-cs-tools/arm-none-eabi/lib//libm.a(lib_a-w_fmod.o)
                                        0x1f8 (size before relaxing)
 .debug_str     0x0000000000006dd1       0x4c /Users/cho45/arm-cs-tools/arm-none-eabi/lib//libm.a(lib_a-w_log10.o)
                                        0x1fb (size before relaxing)
 .debug_str     0x0000000000006e1d       0x4d /Users/cho45/arm-cs-tools/arm-none-eabi/lib//libm.a(lib_a-w_pow.o)
                                        0x1fd (size before relaxing)
 .debug_str     0x0000000000006e6a       0x3b /Users/cho45/arm-cs-tools/arm-none-eabi/lib//libm.a(lib_a-e_fmod.o)
                                        0x19c (size before relaxing)
 .debug_str     0x0000000000006ea5       0x75 /Users/cho45/arm-cs-tools/arm-none-eabi/lib//libm.a(lib_a-e_log10.o)
                                        0x1d2 (size before relaxing)
 .debug_str     0x0000000000006f1a       0xa2 /Users/cho45/arm-cs-tools/arm-none-eabi/lib//libm.a(lib_a-e_pow.o)
                                        0x20c (size before relaxing)
 .debug_str     0x0000000000006fbc       0x3b /Users/cho45/arm-cs-tools/arm-none-eabi/lib//libm.a(lib_a-e_sqrt.o)
                                        0x1a1 (size before relaxing)
 .debug_str     0x0000000000006ff7       0x40 /Users/cho45/arm-cs-tools/arm-none-eabi/lib//libm.a(lib_a-s_fabs.o)
                                        0x183 (size before relaxing)
 .debug_str     0x0000000000007037       0x3f /Users/cho45/arm-cs-tools/arm-none-eabi/lib//libm.a(lib_a-s_finite.o)
                                        0x168 (size before relaxing)
 .debug_str     0x0000000000007076       0x40 /Users/cho45/arm-cs-tools/arm-none-eabi/lib//libm.a(lib_a-s_lib_ver.o)
                                        0x1a8 (size before relaxing)
 .debug_str     0x00000000000070b6       0x40 /Users/cho45/arm-cs-tools/arm-none-eabi/lib//libm.a(lib_a-s_matherr.o)
                                        0x17a (size before relaxing)
 .debug_str     0x00000000000070f6       0x3c /Users/cho45/arm-cs-tools/arm-none-eabi/lib//libm.a(lib_a-s_nan.o)
                                        0x150 (size before relaxing)
 .debug_str     0x0000000000007132       0x43 /Users/cho45/arm-cs-tools/arm-none-eabi/lib//libm.a(lib_a-s_rint.o)
                                        0x1a1 (size before relaxing)
 .debug_str     0x0000000000007175       0x4f /Users/cho45/arm-cs-tools/arm-none-eabi/lib//libm.a(lib_a-s_scalbn.o)
                                        0x1ba (size before relaxing)
 .debug_str     0x00000000000071c4       0x4d /Users/cho45/arm-cs-tools/arm-none-eabi/lib//libm.a(lib_a-e_log.o)
                                        0x1b8 (size before relaxing)
 .debug_str     0x0000000000007211       0x41 /Users/cho45/arm-cs-tools/arm-none-eabi/lib//libm.a(lib_a-s_copysign.o)
                                        0x18f (size before relaxing)
 .debug_str     0x0000000000007252       0xca /Users/cho45/arm-cs-tools/lib/gcc/arm-none-eabi/4.7.3/libgcc.a(bpabi.o)
                                        0x105 (size before relaxing)
 .debug_str     0x000000000000731c       0xa5 /Users/cho45/arm-cs-tools/lib/gcc/arm-none-eabi/4.7.3/libgcc.a(_divdi3.o)
                                        0x1b9 (size before relaxing)
 .debug_str     0x0000000000000000      0x1ba /Users/cho45/arm-cs-tools/lib/gcc/arm-none-eabi/4.7.3/libgcc.a(_udivdi3.o)

.debug_frame    0x0000000000000000     0x7c24
 .debug_frame   0x0000000000000000       0x44 main.o
 .debug_frame   0x0000000000000044      0x220 syscalls.o
 .debug_frame   0x0000000000000264      0x300 /Users/cho45/project/raspberrypi-mruby-bare-metal/mruby/build/arm-eabi-raspberry-pi/lib/libmruby.a(load.o)
 .debug_frame   0x0000000000000564      0x1d0 /Users/cho45/project/raspberrypi-mruby-bare-metal/mruby/build/arm-eabi-raspberry-pi/lib/libmruby.a(proc.o)
 .debug_frame   0x0000000000000734      0x1b4 /Users/cho45/project/raspberrypi-mruby-bare-metal/mruby/build/arm-eabi-raspberry-pi/lib/libmruby.a(state.o)
 .debug_frame   0x00000000000008e8      0xaf0 /Users/cho45/project/raspberrypi-mruby-bare-metal/mruby/build/arm-eabi-raspberry-pi/lib/libmruby.a(string.o)
 .debug_frame   0x00000000000013d8      0x428 /Users/cho45/project/raspberrypi-mruby-bare-metal/mruby/build/arm-eabi-raspberry-pi/lib/libmruby.a(symbol.o)
 .debug_frame   0x0000000000001800      0x93c /Users/cho45/project/raspberrypi-mruby-bare-metal/mruby/build/arm-eabi-raspberry-pi/lib/libmruby.a(variable.o)
 .debug_frame   0x000000000000213c      0x360 /Users/cho45/project/raspberrypi-mruby-bare-metal/mruby/build/arm-eabi-raspberry-pi/lib/libmruby.a(vm.o)
 .debug_frame   0x000000000000249c      0x7b4 /Users/cho45/project/raspberrypi-mruby-bare-metal/mruby/build/arm-eabi-raspberry-pi/lib/libmruby.a(array.o)
 .debug_frame   0x0000000000002c50      0xd54 /Users/cho45/project/raspberrypi-mruby-bare-metal/mruby/build/arm-eabi-raspberry-pi/lib/libmruby.a(class.o)
 .debug_frame   0x00000000000039a4       0x28 /Users/cho45/project/raspberrypi-mruby-bare-metal/mruby/build/arm-eabi-raspberry-pi/lib/libmruby.a(crc.o)
 .debug_frame   0x00000000000039cc       0xcc /Users/cho45/project/raspberrypi-mruby-bare-metal/mruby/build/arm-eabi-raspberry-pi/lib/libmruby.a(debug.o)
 .debug_frame   0x0000000000003a98      0x358 /Users/cho45/project/raspberrypi-mruby-bare-metal/mruby/build/arm-eabi-raspberry-pi/lib/libmruby.a(error.o)
 .debug_frame   0x0000000000003df0      0x610 /Users/cho45/project/raspberrypi-mruby-bare-metal/mruby/build/arm-eabi-raspberry-pi/lib/libmruby.a(gc.o)
 .debug_frame   0x0000000000004400      0x714 /Users/cho45/project/raspberrypi-mruby-bare-metal/mruby/build/arm-eabi-raspberry-pi/lib/libmruby.a(hash.o)
 .debug_frame   0x0000000000004b14       0x44 /Users/cho45/project/raspberrypi-mruby-bare-metal/mruby/build/arm-eabi-raspberry-pi/lib/libmruby.a(init.o)
 .debug_frame   0x0000000000004b58      0x788 /Users/cho45/project/raspberrypi-mruby-bare-metal/mruby/build/arm-eabi-raspberry-pi/lib/libmruby.a(kernel.o)
 .debug_frame   0x00000000000052e0      0x6fc /Users/cho45/project/raspberrypi-mruby-bare-metal/mruby/build/arm-eabi-raspberry-pi/lib/libmruby.a(numeric.o)
 .debug_frame   0x00000000000059dc      0x478 /Users/cho45/project/raspberrypi-mruby-bare-metal/mruby/build/arm-eabi-raspberry-pi/lib/libmruby.a(object.o)
 .debug_frame   0x0000000000005e54       0xbc /Users/cho45/project/raspberrypi-mruby-bare-metal/mruby/build/arm-eabi-raspberry-pi/lib/libmruby.a(print.o)
 .debug_frame   0x0000000000005f10      0x2c0 /Users/cho45/project/raspberrypi-mruby-bare-metal/mruby/build/arm-eabi-raspberry-pi/lib/libmruby.a(range.o)
 .debug_frame   0x00000000000061d0       0x2c /Users/cho45/project/raspberrypi-mruby-bare-metal/mruby/build/arm-eabi-raspberry-pi/lib/libmruby.a(version.o)
 .debug_frame   0x00000000000061fc       0x2c /Users/cho45/project/raspberrypi-mruby-bare-metal/mruby/build/arm-eabi-raspberry-pi/lib/libmruby.a(mrblib.o)
 .debug_frame   0x0000000000006228       0xc0 /Users/cho45/project/raspberrypi-mruby-bare-metal/mruby/build/arm-eabi-raspberry-pi/lib/libmruby.a(backtrace.o)
 .debug_frame   0x00000000000062e8       0x2c /Users/cho45/project/raspberrypi-mruby-bare-metal/mruby/build/arm-eabi-raspberry-pi/lib/libmruby.a(compar.o)
 .debug_frame   0x0000000000006314       0x2c /Users/cho45/project/raspberrypi-mruby-bare-metal/mruby/build/arm-eabi-raspberry-pi/lib/libmruby.a(enum.o)
 .debug_frame   0x0000000000006340      0x110 /Users/cho45/project/raspberrypi-mruby-bare-metal/mruby/build/arm-eabi-raspberry-pi/lib/libmruby.a(etc.o)
 .debug_frame   0x0000000000006450       0x28 /Users/cho45/arm-cs-tools/arm-none-eabi/lib//libc.a(lib_a-abort.o)
 .debug_frame   0x0000000000006478       0x20 /Users/cho45/arm-cs-tools/arm-none-eabi/lib//libc.a(lib_a-abs.o)
 .debug_frame   0x0000000000006498       0x20 /Users/cho45/arm-cs-tools/arm-none-eabi/lib//libc.a(lib_a-errno.o)
 .debug_frame   0x00000000000064b8       0x28 /Users/cho45/arm-cs-tools/arm-none-eabi/lib//libc.a(lib_a-exit.o)
 .debug_frame   0x00000000000064e0       0x3c /Users/cho45/arm-cs-tools/arm-none-eabi/lib//libc.a(lib_a-fputs.o)
 .debug_frame   0x000000000000651c       0x54 /Users/cho45/arm-cs-tools/arm-none-eabi/lib//libc.a(lib_a-fread.o)
 .debug_frame   0x0000000000006570       0x50 /Users/cho45/arm-cs-tools/arm-none-eabi/lib//libc.a(lib_a-fseek.o)
 .debug_frame   0x00000000000065c0       0x2c /Users/cho45/arm-cs-tools/arm-none-eabi/lib//libc.a(lib_a-fstatr.o)
 .debug_frame   0x00000000000065ec       0x3c /Users/cho45/arm-cs-tools/arm-none-eabi/lib//libc.a(lib_a-ftell.o)
 .debug_frame   0x0000000000006628       0x38 /Users/cho45/arm-cs-tools/arm-none-eabi/lib//libc.a(lib_a-fvwrite.o)
 .debug_frame   0x0000000000006660       0x50 /Users/cho45/arm-cs-tools/arm-none-eabi/lib//libc.a(lib_a-fwrite.o)
 .debug_frame   0x00000000000066b0       0x30 /Users/cho45/arm-cs-tools/arm-none-eabi/lib//libc.a(lib_a-makebuf.o)
 .debug_frame   0x00000000000066e0       0x40 /Users/cho45/arm-cs-tools/arm-none-eabi/lib//libc.a(lib_a-malloc.o)
 .debug_frame   0x0000000000006720       0x34 /Users/cho45/arm-cs-tools/arm-none-eabi/lib//libc.a(lib_a-mallocr.o)
 .debug_frame   0x0000000000006754       0x20 /Users/cho45/arm-cs-tools/arm-none-eabi/lib//libc.a(lib_a-memchr.o)
 .debug_frame   0x0000000000006774       0x28 /Users/cho45/arm-cs-tools/arm-none-eabi/lib//libc.a(lib_a-memcmp.o)
 .debug_frame   0x000000000000679c       0x20 /Users/cho45/arm-cs-tools/arm-none-eabi/lib//libc.a(lib_a-memcpy.o)
 .debug_frame   0x00000000000067bc       0x20 /Users/cho45/arm-cs-tools/arm-none-eabi/lib//libc.a(lib_a-memmove.o)
 .debug_frame   0x00000000000067dc       0x20 /Users/cho45/arm-cs-tools/arm-none-eabi/lib//libc.a(lib_a-memset.o)
 .debug_frame   0x00000000000067fc       0x30 /Users/cho45/arm-cs-tools/arm-none-eabi/lib//libc.a(lib_a-mlock.o)
 .debug_frame   0x000000000000682c       0x5c /Users/cho45/arm-cs-tools/arm-none-eabi/lib//libc.a(lib_a-printf.o)
 .debug_frame   0x0000000000006888       0x28 /Users/cho45/arm-cs-tools/arm-none-eabi/lib//libc.a(lib_a-realloc.o)
 .debug_frame   0x00000000000068b0       0x38 /Users/cho45/arm-cs-tools/arm-none-eabi/lib//libc.a(lib_a-reallocr.o)
 .debug_frame   0x00000000000068e8       0x64 /Users/cho45/arm-cs-tools/arm-none-eabi/lib//libc.a(lib_a-reent.o)
 .debug_frame   0x000000000000694c       0x44 /Users/cho45/arm-cs-tools/arm-none-eabi/lib//libc.a(lib_a-refill.o)
 .debug_frame   0x0000000000006990       0x20 /Users/cho45/arm-cs-tools/arm-none-eabi/lib//libc.a(lib_a-s_fpclassify.o)
 .debug_frame   0x00000000000069b0       0x2c /Users/cho45/arm-cs-tools/arm-none-eabi/lib//libc.a(lib_a-sbrkr.o)
 .debug_frame   0x00000000000069dc       0xc0 /Users/cho45/arm-cs-tools/arm-none-eabi/lib//libc.a(lib_a-signal.o)
 .debug_frame   0x0000000000006a9c       0x44 /Users/cho45/arm-cs-tools/arm-none-eabi/lib//libc.a(lib_a-signalr.o)
 .debug_frame   0x0000000000006ae0       0x88 /Users/cho45/arm-cs-tools/arm-none-eabi/lib//libc.a(lib_a-stdio.o)
 .debug_frame   0x0000000000006b68       0x20 /Users/cho45/arm-cs-tools/arm-none-eabi/lib//libc.a(lib_a-strcmp.o)
 .debug_frame   0x0000000000006b88       0x20 /Users/cho45/arm-cs-tools/arm-none-eabi/lib//libc.a(lib_a-strlen.o)
 .debug_frame   0x0000000000006ba8       0x84 /Users/cho45/arm-cs-tools/arm-none-eabi/lib//libc.a(lib_a-strtod.o)
 .debug_frame   0x0000000000006c2c       0x54 /Users/cho45/arm-cs-tools/arm-none-eabi/lib//libc.a(lib_a-strtoul.o)
 .debug_frame   0x0000000000006c80       0x54 /Users/cho45/arm-cs-tools/arm-none-eabi/lib//libc.a(lib_a-vfprintf.o)
 .debug_frame   0x0000000000006cd4       0x48 /Users/cho45/arm-cs-tools/arm-none-eabi/lib//libc.a(lib_a-vsnprintf.o)
 .debug_frame   0x0000000000006d1c       0x3c /Users/cho45/arm-cs-tools/arm-none-eabi/lib//libc.a(lib_a-wbuf.o)
 .debug_frame   0x0000000000006d58       0x2c /Users/cho45/arm-cs-tools/arm-none-eabi/lib//libc.a(lib_a-writer.o)
 .debug_frame   0x0000000000006d84       0x2c /Users/cho45/arm-cs-tools/arm-none-eabi/lib//libc.a(lib_a-wsetup.o)
 .debug_frame   0x0000000000006db0       0x54 /Users/cho45/arm-cs-tools/arm-none-eabi/lib//libc.a(lib_a-__call_atexit.o)
 .debug_frame   0x0000000000006e04       0x28 /Users/cho45/arm-cs-tools/arm-none-eabi/lib//libc.a(lib_a-atexit.o)
 .debug_frame   0x0000000000006e2c       0x2c /Users/cho45/arm-cs-tools/arm-none-eabi/lib//libc.a(lib_a-closer.o)
 .debug_frame   0x0000000000006e58       0x64 /Users/cho45/arm-cs-tools/arm-none-eabi/lib//libc.a(lib_a-dtoa.o)
 .debug_frame   0x0000000000006ebc       0x48 /Users/cho45/arm-cs-tools/arm-none-eabi/lib//libc.a(lib_a-fflush.o)
 .debug_frame   0x0000000000006f04      0x138 /Users/cho45/arm-cs-tools/arm-none-eabi/lib//libc.a(lib_a-findfp.o)
 .debug_frame   0x000000000000703c       0x2c /Users/cho45/arm-cs-tools/arm-none-eabi/lib//libc.a(lib_a-fini.o)
 .debug_frame   0x0000000000007068       0x4c /Users/cho45/arm-cs-tools/arm-none-eabi/lib//libc.a(lib_a-freer.o)
 .debug_frame   0x00000000000070b4       0x54 /Users/cho45/arm-cs-tools/arm-none-eabi/lib//libc.a(lib_a-fwalk.o)
 .debug_frame   0x0000000000007108       0x84 /Users/cho45/arm-cs-tools/arm-none-eabi/lib//libc.a(lib_a-gdtoa-gethex.o)
 .debug_frame   0x000000000000718c       0x50 /Users/cho45/arm-cs-tools/arm-none-eabi/lib//libc.a(lib_a-gdtoa-hexnan.o)
 .debug_frame   0x00000000000071dc       0x2c /Users/cho45/arm-cs-tools/arm-none-eabi/lib//libc.a(lib_a-isattyr.o)
 .debug_frame   0x0000000000007208       0x98 /Users/cho45/arm-cs-tools/arm-none-eabi/lib//libc.a(lib_a-locale.o)
 .debug_frame   0x00000000000072a0       0x2c /Users/cho45/arm-cs-tools/arm-none-eabi/lib//libc.a(lib_a-lseekr.o)
 .debug_frame   0x00000000000072cc      0x220 /Users/cho45/arm-cs-tools/arm-none-eabi/lib//libc.a(lib_a-mprec.o)
 .debug_frame   0x00000000000074ec       0x2c /Users/cho45/arm-cs-tools/arm-none-eabi/lib//libc.a(lib_a-readr.o)
 .debug_frame   0x0000000000007518       0x28 /Users/cho45/arm-cs-tools/arm-none-eabi/lib//libc.a(lib_a-strncmp.o)
 .debug_frame   0x0000000000007540       0x3c /Users/cho45/arm-cs-tools/arm-none-eabi/lib//libc.a(lib_a-svfprintf.o)
 .debug_frame   0x000000000000757c       0x78 /Users/cho45/arm-cs-tools/arm-none-eabi/lib//libc.a(lib_a-vfiprintf.o)
 .debug_frame   0x00000000000075f4       0x34 /Users/cho45/arm-cs-tools/arm-none-eabi/lib//libc.a(lib_a-__atexit.o)
 .debug_frame   0x0000000000007628       0x28 /Users/cho45/arm-cs-tools/arm-none-eabi/lib//libc.a(lib_a-callocr.o)
 .debug_frame   0x0000000000007650       0x3c /Users/cho45/arm-cs-tools/arm-none-eabi/lib//libc.a(lib_a-fclose.o)
 .debug_frame   0x000000000000768c       0x50 /Users/cho45/arm-cs-tools/arm-none-eabi/lib//libc.a(lib_a-fputwc.o)
 .debug_frame   0x00000000000076dc       0x68 /Users/cho45/arm-cs-tools/arm-none-eabi/lib//libc.a(lib_a-svfiprintf.o)
 .debug_frame   0x0000000000007744       0x4c /Users/cho45/arm-cs-tools/arm-none-eabi/lib//libc.a(lib_a-wcrtomb.o)
 .debug_frame   0x0000000000007790       0x44 /Users/cho45/arm-cs-tools/arm-none-eabi/lib//libc.a(lib_a-wctomb_r.o)
 .debug_frame   0x00000000000077d4       0x34 /Users/cho45/arm-cs-tools/arm-none-eabi/lib//libm.a(lib_a-s_ceil.o)
 .debug_frame   0x0000000000007808       0x34 /Users/cho45/arm-cs-tools/arm-none-eabi/lib//libm.a(lib_a-s_floor.o)
 .debug_frame   0x000000000000783c       0x38 /Users/cho45/arm-cs-tools/arm-none-eabi/lib//libm.a(lib_a-w_fmod.o)
 .debug_frame   0x0000000000007874       0x34 /Users/cho45/arm-cs-tools/arm-none-eabi/lib//libm.a(lib_a-w_log10.o)
 .debug_frame   0x00000000000078a8       0x38 /Users/cho45/arm-cs-tools/arm-none-eabi/lib//libm.a(lib_a-w_pow.o)
 .debug_frame   0x00000000000078e0       0x34 /Users/cho45/arm-cs-tools/arm-none-eabi/lib//libm.a(lib_a-e_fmod.o)
 .debug_frame   0x0000000000007914       0x34 /Users/cho45/arm-cs-tools/arm-none-eabi/lib//libm.a(lib_a-e_log10.o)
 .debug_frame   0x0000000000007948       0x38 /Users/cho45/arm-cs-tools/arm-none-eabi/lib//libm.a(lib_a-e_pow.o)
 .debug_frame   0x0000000000007980       0x34 /Users/cho45/arm-cs-tools/arm-none-eabi/lib//libm.a(lib_a-e_sqrt.o)
 .debug_frame   0x00000000000079b4       0x20 /Users/cho45/arm-cs-tools/arm-none-eabi/lib//libm.a(lib_a-s_fabs.o)
 .debug_frame   0x00000000000079d4       0x20 /Users/cho45/arm-cs-tools/arm-none-eabi/lib//libm.a(lib_a-s_finite.o)
 .debug_frame   0x00000000000079f4       0x20 /Users/cho45/arm-cs-tools/arm-none-eabi/lib//libm.a(lib_a-s_matherr.o)
 .debug_frame   0x0000000000007a14       0x20 /Users/cho45/arm-cs-tools/arm-none-eabi/lib//libm.a(lib_a-s_nan.o)
 .debug_frame   0x0000000000007a34       0x34 /Users/cho45/arm-cs-tools/arm-none-eabi/lib//libm.a(lib_a-s_rint.o)
 .debug_frame   0x0000000000007a68       0x30 /Users/cho45/arm-cs-tools/arm-none-eabi/lib//libm.a(lib_a-s_scalbn.o)
 .debug_frame   0x0000000000007a98       0x38 /Users/cho45/arm-cs-tools/arm-none-eabi/lib//libm.a(lib_a-e_log.o)
 .debug_frame   0x0000000000007ad0       0x28 /Users/cho45/arm-cs-tools/arm-none-eabi/lib//libm.a(lib_a-s_copysign.o)
 .debug_frame   0x0000000000007af8       0x20 /Users/cho45/arm-cs-tools/lib/gcc/arm-none-eabi/4.7.3/libgcc.a(_udivsi3.o)
 .debug_frame   0x0000000000007b18       0x20 /Users/cho45/arm-cs-tools/lib/gcc/arm-none-eabi/4.7.3/libgcc.a(_divsi3.o)
 .debug_frame   0x0000000000007b38       0x28 /Users/cho45/arm-cs-tools/lib/gcc/arm-none-eabi/4.7.3/libgcc.a(_aeabi_uldivmod.o)
 .debug_frame   0x0000000000007b60       0x54 /Users/cho45/arm-cs-tools/lib/gcc/arm-none-eabi/4.7.3/libgcc.a(bpabi.o)
 .debug_frame   0x0000000000007bb4       0x38 /Users/cho45/arm-cs-tools/lib/gcc/arm-none-eabi/4.7.3/libgcc.a(_divdi3.o)
 .debug_frame   0x0000000000007bec       0x38 /Users/cho45/arm-cs-tools/lib/gcc/arm-none-eabi/4.7.3/libgcc.a(_udivdi3.o)

.debug_ranges   0x0000000000000000      0xf68
 .debug_ranges  0x0000000000000000       0x30 /Users/cho45/project/raspberrypi-mruby-bare-metal/mruby/build/arm-eabi-raspberry-pi/lib/libmruby.a(string.o)
 .debug_ranges  0x0000000000000030       0x30 /Users/cho45/project/raspberrypi-mruby-bare-metal/mruby/build/arm-eabi-raspberry-pi/lib/libmruby.a(vm.o)
 .debug_ranges  0x0000000000000060       0x30 /Users/cho45/project/raspberrypi-mruby-bare-metal/mruby/build/arm-eabi-raspberry-pi/lib/libmruby.a(class.o)
 .debug_ranges  0x0000000000000090       0x30 /Users/cho45/project/raspberrypi-mruby-bare-metal/mruby/build/arm-eabi-raspberry-pi/lib/libmruby.a(error.o)
 .debug_ranges  0x00000000000000c0       0x10 /Users/cho45/arm-cs-tools/arm-none-eabi/lib//libc.a(lib_a-abort.o)
 .debug_ranges  0x00000000000000d0       0x10 /Users/cho45/arm-cs-tools/arm-none-eabi/lib//libc.a(lib_a-abs.o)
 .debug_ranges  0x00000000000000e0       0x10 /Users/cho45/arm-cs-tools/arm-none-eabi/lib//libc.a(lib_a-errno.o)
 .debug_ranges  0x00000000000000f0       0x10 /Users/cho45/arm-cs-tools/arm-none-eabi/lib//libc.a(lib_a-exit.o)
 .debug_ranges  0x0000000000000100       0x18 /Users/cho45/arm-cs-tools/arm-none-eabi/lib//libc.a(lib_a-fputs.o)
 .debug_ranges  0x0000000000000118       0x18 /Users/cho45/arm-cs-tools/arm-none-eabi/lib//libc.a(lib_a-fread.o)
 .debug_ranges  0x0000000000000130       0x18 /Users/cho45/arm-cs-tools/arm-none-eabi/lib//libc.a(lib_a-fseek.o)
 .debug_ranges  0x0000000000000148       0x10 /Users/cho45/arm-cs-tools/arm-none-eabi/lib//libc.a(lib_a-fstatr.o)
 .debug_ranges  0x0000000000000158       0x18 /Users/cho45/arm-cs-tools/arm-none-eabi/lib//libc.a(lib_a-ftell.o)
 .debug_ranges  0x0000000000000170       0x10 /Users/cho45/arm-cs-tools/arm-none-eabi/lib//libc.a(lib_a-fvwrite.o)
 .debug_ranges  0x0000000000000180       0x18 /Users/cho45/arm-cs-tools/arm-none-eabi/lib//libc.a(lib_a-fwrite.o)
 .debug_ranges  0x0000000000000198       0x10 /Users/cho45/arm-cs-tools/arm-none-eabi/lib//libc.a(lib_a-makebuf.o)
 .debug_ranges  0x00000000000001a8       0x18 /Users/cho45/arm-cs-tools/arm-none-eabi/lib//libc.a(lib_a-malloc.o)
 .debug_ranges  0x00000000000001c0       0x10 /Users/cho45/arm-cs-tools/arm-none-eabi/lib//libc.a(lib_a-mallocr.o)
 .debug_ranges  0x00000000000001d0       0x10 /Users/cho45/arm-cs-tools/arm-none-eabi/lib//libc.a(lib_a-memchr.o)
 .debug_ranges  0x00000000000001e0       0x10 /Users/cho45/arm-cs-tools/arm-none-eabi/lib//libc.a(lib_a-memcmp.o)
 .debug_ranges  0x00000000000001f0       0x10 /Users/cho45/arm-cs-tools/arm-none-eabi/lib//libc.a(lib_a-memcpy.o)
 .debug_ranges  0x0000000000000200       0x10 /Users/cho45/arm-cs-tools/arm-none-eabi/lib//libc.a(lib_a-memmove.o)
 .debug_ranges  0x0000000000000210       0x10 /Users/cho45/arm-cs-tools/arm-none-eabi/lib//libc.a(lib_a-memset.o)
 .debug_ranges  0x0000000000000220       0x18 /Users/cho45/arm-cs-tools/arm-none-eabi/lib//libc.a(lib_a-mlock.o)
 .debug_ranges  0x0000000000000238       0x18 /Users/cho45/arm-cs-tools/arm-none-eabi/lib//libc.a(lib_a-printf.o)
 .debug_ranges  0x0000000000000250       0x10 /Users/cho45/arm-cs-tools/arm-none-eabi/lib//libc.a(lib_a-realloc.o)
 .debug_ranges  0x0000000000000260       0x10 /Users/cho45/arm-cs-tools/arm-none-eabi/lib//libc.a(lib_a-reallocr.o)
 .debug_ranges  0x0000000000000270       0x20 /Users/cho45/arm-cs-tools/arm-none-eabi/lib//libc.a(lib_a-reent.o)
 .debug_ranges  0x0000000000000290       0x18 /Users/cho45/arm-cs-tools/arm-none-eabi/lib//libc.a(lib_a-refill.o)
 .debug_ranges  0x00000000000002a8       0x10 /Users/cho45/arm-cs-tools/arm-none-eabi/lib//libc.a(lib_a-s_fpclassify.o)
 .debug_ranges  0x00000000000002b8       0x10 /Users/cho45/arm-cs-tools/arm-none-eabi/lib//libc.a(lib_a-sbrkr.o)
 .debug_ranges  0x00000000000002c8       0x48 /Users/cho45/arm-cs-tools/arm-none-eabi/lib//libc.a(lib_a-signal.o)
 .debug_ranges  0x0000000000000310       0x18 /Users/cho45/arm-cs-tools/arm-none-eabi/lib//libc.a(lib_a-signalr.o)
 .debug_ranges  0x0000000000000328       0x30 /Users/cho45/arm-cs-tools/arm-none-eabi/lib//libc.a(lib_a-stdio.o)
 .debug_ranges  0x0000000000000358       0x10 /Users/cho45/arm-cs-tools/arm-none-eabi/lib//libc.a(lib_a-strcmp.o)
 .debug_ranges  0x0000000000000368       0x10 /Users/cho45/arm-cs-tools/arm-none-eabi/lib//libc.a(lib_a-strlen.o)
 .debug_ranges  0x0000000000000378       0x28 /Users/cho45/arm-cs-tools/arm-none-eabi/lib//libc.a(lib_a-strtod.o)
 .debug_ranges  0x00000000000003a0       0x18 /Users/cho45/arm-cs-tools/arm-none-eabi/lib//libc.a(lib_a-strtoul.o)
 .debug_ranges  0x00000000000003b8      0x118 /Users/cho45/arm-cs-tools/arm-none-eabi/lib//libc.a(lib_a-vfprintf.o)
 .debug_ranges  0x00000000000004d0       0x18 /Users/cho45/arm-cs-tools/arm-none-eabi/lib//libc.a(lib_a-vsnprintf.o)
 .debug_ranges  0x00000000000004e8       0x18 /Users/cho45/arm-cs-tools/arm-none-eabi/lib//libc.a(lib_a-wbuf.o)
 .debug_ranges  0x0000000000000500       0x10 /Users/cho45/arm-cs-tools/arm-none-eabi/lib//libc.a(lib_a-writer.o)
 .debug_ranges  0x0000000000000510       0x10 /Users/cho45/arm-cs-tools/arm-none-eabi/lib//libc.a(lib_a-wsetup.o)
 .debug_ranges  0x0000000000000520       0x40 /Users/cho45/arm-cs-tools/arm-none-eabi/lib//libc.a(lib_a-__call_atexit.o)
 .debug_ranges  0x0000000000000560       0x10 /Users/cho45/arm-cs-tools/arm-none-eabi/lib//libc.a(lib_a-atexit.o)
 .debug_ranges  0x0000000000000570       0x10 /Users/cho45/arm-cs-tools/arm-none-eabi/lib//libc.a(lib_a-closer.o)
 .debug_ranges  0x0000000000000580       0x18 /Users/cho45/arm-cs-tools/arm-none-eabi/lib//libc.a(lib_a-dtoa.o)
 .debug_ranges  0x0000000000000598       0x18 /Users/cho45/arm-cs-tools/arm-none-eabi/lib//libc.a(lib_a-fflush.o)
 .debug_ranges  0x00000000000005b0       0x78 /Users/cho45/arm-cs-tools/arm-none-eabi/lib//libc.a(lib_a-findfp.o)
 .debug_ranges  0x0000000000000628       0x10 /Users/cho45/arm-cs-tools/arm-none-eabi/lib//libc.a(lib_a-fini.o)
 .debug_ranges  0x0000000000000638       0x18 /Users/cho45/arm-cs-tools/arm-none-eabi/lib//libc.a(lib_a-freer.o)
 .debug_ranges  0x0000000000000650       0x78 /Users/cho45/arm-cs-tools/arm-none-eabi/lib//libc.a(lib_a-fwalk.o)
 .debug_ranges  0x00000000000006c8       0x28 /Users/cho45/arm-cs-tools/arm-none-eabi/lib//libc.a(lib_a-gdtoa-gethex.o)
 .debug_ranges  0x00000000000006f0       0x18 /Users/cho45/arm-cs-tools/arm-none-eabi/lib//libc.a(lib_a-gdtoa-hexnan.o)
 .debug_ranges  0x0000000000000708       0x10 /Users/cho45/arm-cs-tools/arm-none-eabi/lib//libc.a(lib_a-isattyr.o)
 .debug_ranges  0x0000000000000718       0x48 /Users/cho45/arm-cs-tools/arm-none-eabi/lib//libc.a(lib_a-locale.o)
 .debug_ranges  0x0000000000000760       0x10 /Users/cho45/arm-cs-tools/arm-none-eabi/lib//libc.a(lib_a-lseekr.o)
 .debug_ranges  0x0000000000000770       0xa0 /Users/cho45/arm-cs-tools/arm-none-eabi/lib//libc.a(lib_a-mprec.o)
 .debug_ranges  0x0000000000000810       0x10 /Users/cho45/arm-cs-tools/arm-none-eabi/lib//libc.a(lib_a-readr.o)
 .debug_ranges  0x0000000000000820       0x10 /Users/cho45/arm-cs-tools/arm-none-eabi/lib//libc.a(lib_a-strncmp.o)
 .debug_ranges  0x0000000000000830      0x100 /Users/cho45/arm-cs-tools/arm-none-eabi/lib//libc.a(lib_a-svfprintf.o)
 .debug_ranges  0x0000000000000930       0x58 /Users/cho45/arm-cs-tools/arm-none-eabi/lib//libc.a(lib_a-vfiprintf.o)
 .debug_ranges  0x0000000000000988       0x10 /Users/cho45/arm-cs-tools/arm-none-eabi/lib//libc.a(lib_a-__atexit.o)
 .debug_ranges  0x0000000000000998       0x10 /Users/cho45/arm-cs-tools/arm-none-eabi/lib//libc.a(lib_a-callocr.o)
 .debug_ranges  0x00000000000009a8       0x18 /Users/cho45/arm-cs-tools/arm-none-eabi/lib//libc.a(lib_a-fclose.o)
 .debug_ranges  0x00000000000009c0       0x18 /Users/cho45/arm-cs-tools/arm-none-eabi/lib//libc.a(lib_a-fputwc.o)
 .debug_ranges  0x00000000000009d8       0x38 /Users/cho45/arm-cs-tools/arm-none-eabi/lib//libc.a(lib_a-svfiprintf.o)
 .debug_ranges  0x0000000000000a10       0x18 /Users/cho45/arm-cs-tools/arm-none-eabi/lib//libc.a(lib_a-wcrtomb.o)
 .debug_ranges  0x0000000000000a28       0x18 /Users/cho45/arm-cs-tools/arm-none-eabi/lib//libc.a(lib_a-wctomb_r.o)
 .debug_ranges  0x0000000000000a40       0x10 /Users/cho45/arm-cs-tools/arm-none-eabi/lib//libm.a(lib_a-s_ceil.o)
 .debug_ranges  0x0000000000000a50       0x10 /Users/cho45/arm-cs-tools/arm-none-eabi/lib//libm.a(lib_a-s_floor.o)
 .debug_ranges  0x0000000000000a60       0x10 /Users/cho45/arm-cs-tools/arm-none-eabi/lib//libm.a(lib_a-w_fmod.o)
 .debug_ranges  0x0000000000000a70       0x10 /Users/cho45/arm-cs-tools/arm-none-eabi/lib//libm.a(lib_a-w_log10.o)
 .debug_ranges  0x0000000000000a80       0x10 /Users/cho45/arm-cs-tools/arm-none-eabi/lib//libm.a(lib_a-w_pow.o)
 .debug_ranges  0x0000000000000a90       0x28 /Users/cho45/arm-cs-tools/arm-none-eabi/lib//libm.a(lib_a-e_fmod.o)
 .debug_ranges  0x0000000000000ab8       0x40 /Users/cho45/arm-cs-tools/arm-none-eabi/lib//libm.a(lib_a-e_log10.o)
 .debug_ranges  0x0000000000000af8      0x190 /Users/cho45/arm-cs-tools/arm-none-eabi/lib//libm.a(lib_a-e_pow.o)
 .debug_ranges  0x0000000000000c88       0x10 /Users/cho45/arm-cs-tools/arm-none-eabi/lib//libm.a(lib_a-e_sqrt.o)
 .debug_ranges  0x0000000000000c98       0x10 /Users/cho45/arm-cs-tools/arm-none-eabi/lib//libm.a(lib_a-s_fabs.o)
 .debug_ranges  0x0000000000000ca8       0x10 /Users/cho45/arm-cs-tools/arm-none-eabi/lib//libm.a(lib_a-s_finite.o)
 .debug_ranges  0x0000000000000cb8       0x10 /Users/cho45/arm-cs-tools/arm-none-eabi/lib//libm.a(lib_a-s_matherr.o)
 .debug_ranges  0x0000000000000cc8       0x10 /Users/cho45/arm-cs-tools/arm-none-eabi/lib//libm.a(lib_a-s_nan.o)
 .debug_ranges  0x0000000000000cd8       0x40 /Users/cho45/arm-cs-tools/arm-none-eabi/lib//libm.a(lib_a-s_rint.o)
 .debug_ranges  0x0000000000000d18       0x60 /Users/cho45/arm-cs-tools/arm-none-eabi/lib//libm.a(lib_a-s_scalbn.o)
 .debug_ranges  0x0000000000000d78       0x28 /Users/cho45/arm-cs-tools/arm-none-eabi/lib//libm.a(lib_a-e_log.o)
 .debug_ranges  0x0000000000000da0       0x28 /Users/cho45/arm-cs-tools/arm-none-eabi/lib//libm.a(lib_a-s_copysign.o)
 .debug_ranges  0x0000000000000dc8       0xc8 /Users/cho45/arm-cs-tools/lib/gcc/arm-none-eabi/4.7.3/libgcc.a(_divdi3.o)
 .debug_ranges  0x0000000000000e90       0xd8 /Users/cho45/arm-cs-tools/lib/gcc/arm-none-eabi/4.7.3/libgcc.a(_udivdi3.o)
